(dp0
Vinning
p1
I2577
sVwritings
p2
I3032
sVgingham
p3
I1996
sVyellow
p4
I65
sVsleek
p5
I3941
sVfour
p6
I1890
sVwritinga
p7
I3437
sVsleev
p8
I2951
sVwoods
p9
I2529
sVasian
p10
I520
sVhanging
p11
I252
sVconsists
p12
I1926
sVhate
p13
I3942
sVcollarlength
p14
I4069
sVwhose
p15
I1927
sVshoulderlength
p16
I540
sVwaring
p17
I457
sVpatches
p18
I1110
sVNEAR
p19
I3603
sVsegments
p20
I3765
sVCAUCASIAN
p21
I1511
sVfronta
p22
I2295
sVbike
p23
I506
sVflowerpatterned
p24
I3439
sVbooties
p25
I1756
sVunder
p26
I155
sVrecycle
p27
I3766
sVmessenger
p28
I308
sVtweed
p29
I3332
sValternating
p30
I1907
sVshielding
p31
I2744
sVblanket
p32
I2125
sVrise
p33
I2952
sVcostume
p34
I1197
sVCROPPED
p35
I1896
sVHAND
p36
I571
sVleggings
p37
I133
sVjack
p38
I1558
sVconfetti
p39
I2483
sVcoveralls
p40
I1218
sVBLONDE
p41
I2530
sVPANTS
p42
I356
sVschool
p43
I986
sVhisher
p44
I1632
sVMAY
p45
I1449
sVdarkgray
p46
I513
sVHAIRCUT
p47
I2327
sVsatchel
p48
I361
sVPERSON
p49
I598
sVFLOWERED
p50
I2695
sVcrotch
p51
I2222
sVguiding
p52
I3943
sVgreenish
p53
I849
sVSTROLLER
p54
I3494
sVSANDELS
p55
I3825
sVheading
p56
I1770
sVMAN
p57
I349
sVparted
p58
I744
sVbicycle
p59
I414
sVfeathery
p60
I3944
sVtired
p61
I3441
sVphones
p62
I1818
sVSWEATER
p63
I1155
sVrailing
p64
I697
sVfeathers
p65
I2696
sVlavender
p66
I758
sVhs
p67
I3758
sVpantsshe
p68
I3604
sVmessy
p69
I1702
sVsecond
p70
I1891
sVstreet
p71
I226
sVramp
p72
I2811
sVhoddie
p73
I3767
sVn
p74
I3350
sVhaira
p75
I3976
sVpanda
p76
I3124
sVblue
p77
I21
sVWears
p78
I3033
sVtiered
p79
I3295
sVreligious
p80
I3672
sVtsirt
p81
I3605
sVfingers
p82
I1008
sVlights
p83
I2439
sVdangles
p84
I2746
sVabove
p85
I216
sVblur
p86
I2158
sVnew
p87
I1929
sVtips
p88
I1712
sVupward
p89
I1457
sVconsisting
p90
I2578
sVpressed
p91
I2555
sVmessanger
p92
I3768
sS'<END>'
p93
I3
sVshimmery
p94
I2953
sVmen
p95
I904
sVskirtblack
p96
I3229
sVshortsleeve
p97
I258
sVhere
p98
I940
sVfun
p99
I3034
sVstudio
p100
I3945
sVfuschia
p101
I2909
sVtextured
p102
I1415
sVcreamcolored
p103
I1413
sVstares
p104
I2954
sVcardboard
p105
I2296
sVTheres
p106
I2329
sVredand
p107
I3571
sVhairdo
p108
I2816
sVdaughter
p109
I2817
sVluggage
p110
I503
sVrests
p111
I1267
sVitems
p112
I767
sVleaves
p113
I1951
sVapproaches
p114
I2686
sVHair
p115
I1504
sVjogging
p116
I778
sVShes
p117
I324
sVtangray
p118
I3946
sVNOT
p119
I3445
sVmilitary
p120
I1073
sVwalkie
p121
I2579
sVThin
p122
I1658
sVeyebrows
p123
I2880
sVgolden
p124
I563
sVprints
p125
I1952
sVheeled
p126
I354
sVjacketa
p127
I3230
sVstraw
p128
I958
sVThree
p129
I3446
sVstrap
p130
I150
sVvisible
p131
I204
sVjackets
p132
I1227
sVbra
p133
I868
sVjawlength
p134
I3670
sVswings
p135
I732
sVwould
p136
I2189
sVarmy
p137
I1034
sVsweater
p138
I95
sVspiky
p139
I1869
sVcircling
p140
I3886
sVarms
p141
I200
sVmusic
p142
I1183
sVspike
p143
I2697
sVindistinguishable
p144
I3926
sVcare
p145
I3649
sVtype
p146
I362
sVtell
p147
I1228
sVcalf
p148
I617
sVseparated
p149
I2255
sVPLAID
p150
I1490
sVpaperwork
p151
I1897
sVPACKAGE
p152
I2955
sV43
p153
I3748
sVtrousers
p154
I307
sVwars
p155
I2330
sVbillowing
p156
I2698
sVaccessories
p157
I2956
sVphone
p158
I103
sVwarm
p159
I2154
sVadult
p160
I276
sVV
p161
I1414
sVhole
p162
I3448
sVhold
p163
I891
sVpouch
p164
I1870
sVGLASSES
p165
I698
sVme
p166
I1469
sVpantShe
p167
I2818
sVword
p168
I1160
sVroom
p169
I572
sVBALDING
p170
I2699
sVwork
p171
I583
sVHeShe
p172
I2883
sVworn
p173
I275
sVscrappy
p174
I2996
sVelbow
p175
I317
sVmy
p176
I2850
sVNO
p177
I3028
sVSTRAPPED
p178
I2227
sVdecorative
p179
I1171
sVfists
p180
I2631
sVcalflength
p181
I1622
sVbell
p182
I2793
sVgive
p183
I3771
sVunreadable
p184
I3606
sVcaprilength
p185
I2884
sVhairShe
p186
I1738
sVBUTTONS
p187
I2747
sVHolding
p188
I1985
sVbootsShe
p189
I1953
sVflairs
p190
I3607
sVcalve
p191
I3333
sVculottes
p192
I3328
sVend
p193
I573
sVturn
p194
I2077
sVtravel
p195
I1805
sVPUFFY
p196
I3949
sVfeature
p197
I3449
sVONE
p198
I1470
sVembellishments
p199
I2094
sVfar
p200
I1965
sVhot
p201
I608
sVJack
p202
I2885
sVblackish
p203
I3498
sVgate
p204
I2331
sVflow
p205
I3305
sVbeach
p206
I1908
sVA
p207
I15
sVHEAD
p208
I1978
sVUMBRELLA
p209
I1979
sVbriefcase
p210
I364
sVgreygreen
p211
I2297
sVlad
p212
I2819
sVDRESSED
p213
I1136
sVladder
p214
I3127
sVafter
p215
I2303
sVabdomen
p216
I2042
sVvneck
p217
I522
sVshores
p218
I3450
sVshouldering
p219
I2942
sVmesh
p220
I1659
sVsalmoncolored
p221
I2224
sVsparkles
p222
I2332
sVwhtie
p223
I2575
sVvase
p224
I2748
sVHem
p225
I3111
sVparallel
p226
I2701
sVheaddress
p227
I1820
sVshirt
p228
I9
sVcolorfully
p229
I2749
sVAll
p230
I2886
sVretail
p231
I2688
sVcalves
p232
I1347
sV30s
p233
I3053
sVLOOSE
p234
I1980
sVdescends
p235
I1840
sVbaggage
p236
I3451
sVcheckerboard
p237
I1988
sVgreen
p238
I59
sVspecks
p239
I3452
sVsandalsHe
p240
I1279
sVfan
p241
I3394
sVromper
p242
I1806
sVwind
p243
I1675
sVwine
p244
I3037
sVBlue
p245
I1229
sVoffice
p246
I1649
sVdeck
p247
I2155
sVwound
p248
I3352
sVover
p249
I42
sVbleach
p250
I3334
sVorang
p251
I2487
sVchartreuse
p252
I3473
sVdiagonally
p253
I1348
sVtops
p254
I1099
sVbefore
p255
I1841
sVHEAVY
p256
I2127
sS'<START>'
p257
I4
sVHis
p258
I113
sVunzipped
p259
I987
sVfit
p260
I915
sVdarkbrown
p261
I1894
sVsomewhere
p262
I1220
sVhighlights
p263
I1403
sVbackpack
p264
I43
sVHere
p265
I1426
sVwriting
p266
I220
sVtilts
p267
I2067
sVCarrying
p268
I581
sVstrand
p269
I3080
sVfade
p270
I2958
sVPAPERS
p271
I3611
sVshire
p272
I4043
sVhidden
p273
I2095
sVloading
p274
I3411
sVconfidently
p275
I3234
sVsplit
p276
I2358
sVthen
p277
I2581
sVthem
p278
I380
sVreds
p279
I3017
sVcombination
p280
I3774
sVworkout
p281
I1842
sVHeshe
p282
I2633
sVinterlocked
p283
I3929
sVHIGH
p284
I1393
sVband
p285
I415
sVblueishgray
p286
I2225
sVsack
p287
I1001
sVthey
p288
I452
sVpinkish
p289
I1051
sVdarkrimmed
p290
I3454
sVsilver
p291
I244
sVbricks
p292
I3999
sVbread
p293
I3180
sVshadows
p294
I2068
sVfringed
p295
I2888
sVcrossbody
p296
I475
sVascends
p297
I2128
sVbunny
p298
I2830
sVwooden
p299
I1480
sVgood
p300
I2173
sVleaned
p301
I3235
sVeach
p302
I464
sVpinkwhite
p303
I2156
sVhigher
p304
I3236
sVMouse
p305
I2226
sVside
p306
I94
sVCREAM
p307
I2069
sVlifted
p308
I478
sVhanger
p309
I3950
sVgarment
p310
I806
sVtrain
p311
I1608
sVwhie
p312
I3038
sVSOME
p313
I1757
sVlowcut
p314
I1597
sVused
p315
I2284
sVons
p316
I2634
sVnavy
p317
I243
sVlogo
p318
I219
sVwhit
p319
I673
sVponcho
p320
I1660
sVmessage
p321
I3039
sVtrench
p322
I623
sVtshit
p323
I1872
sVvelvet
p324
I3776
sVdriving
p325
I3335
sVsamurai
p326
I3602
sVgradient
p327
I2441
sVhaired
p328
I187
sVha
p329
I2626
sVbuttonup
p330
I787
sVwashed
p331
I1427
sVsparkly
p332
I1230
sVtrainers
p333
I2402
sVangular
p334
I2134
sVpantsShe
p335
I2333
sVre
p336
I3040
sVlaid
p337
I3952
sVbraces
p338
I3911
sVgot
p339
I1790
sVforth
p340
I3130
sVmakeup
p341
I3255
sVturning
p342
I1546
sVblackhaired
p343
I1758
sVleopard
p344
I911
sVsweatergrey
p345
I3614
sVwheelie
p346
I2768
sVlittle
p347
I297
sVfree
p348
I2191
sVascending
p349
I3778
sVPOSSIBLY
p350
I1693
sVWhat
p351
I2927
sVcement
p352
I2700
sVhoodie
p353
I183
sVsheet
p354
I2279
sVdarkergray
p355
I3779
sVmullet
p356
I3615
sVknit
p357
I960
sVswimming
p358
I2396
sVMickey
p359
I2704
sVshoulderbag
p360
I1450
sVsaggy
p361
I3237
sVshaggy
p362
I1014
sVexposing
p363
I1807
sVshelves
p364
I3041
sVMOBILE
p365
I2043
sVlongsleeved
p366
I292
sVPURSE
p367
I1092
sVsatiny
p368
I2635
sVsoda
p369
I1381
sVuses
p370
I2857
sVclothes
p371
I404
sVonto
p372
I779
sVshirtdark
p373
I1256
sVgrassed
p374
I2457
sVcharacters
p375
I1791
sVdarkskinned
p376
I2410
sVaccent
p377
I1884
sVhoop
p378
I2298
sVgrayblack
p379
I3337
sVpoofy
p380
I2258
sVbandages
p381
I3953
sVthrown
p382
I2342
sVbuttock
p383
I3238
sVwash
p384
I916
sVwrapper
p385
I3733
sVanother
p386
I320
sVthick
p387
I409
sVelectronic
p388
I1322
sVhood
p389
I207
sVbasketball
p390
I840
sVMUSTARD
p391
I3784
sVAREA
p392
I3865
sVmidthighs
p393
I1634
sVtop
p394
I58
sVgirls
p395
I910
sVtow
p396
I2960
sVapproximately
p397
I2821
sVtwenties
p398
I1505
sVtoo
p399
I829
sVtea
p400
I2721
sVlegs
p401
I490
sVdogs
p402
I3616
sVtoe
p403
I527
sVTRIM
p404
I1772
sVcloths
p405
I3951
sVemblem
p406
I699
sVjacketgrey
p407
I2019
sVCALF
p408
I2580
sVcanned
p409
I2243
sVcentered
p410
I1239
sVgym
p411
I429
sVlower
p412
I703
sVwrapped
p413
I817
sVwestern
p414
I3957
sVsomewhat
p415
I1598
sVwardrobe
p416
I3339
sVhealed
p417
I2374
sVstocking
p418
I1843
sVcharacter
p419
I1288
sVknitted
p420
I1421
sVmessing
p421
I3913
sVelegant
p422
I2223
sVhandcuffs
p423
I3458
sVtree
p424
I1311
sVlikely
p425
I2879
sVseated
p426
I2822
sVshower
p427
I3459
sVclasses
p428
I2961
sVcharacteristics
p429
I3833
sVfriend
p430
I1291
sViron
p431
I3133
sVpantsWith
p432
I2751
sVClad
p433
I4061
sVpaved
p434
I2871
sVmini
p435
I633
sVfashion
p436
I1471
sVsees
p437
I3786
sVhandkerchief
p438
I3959
sVPerson
p439
I494
sVtalking
p440
I279
sVredandwhite
p441
I971
sVmanner
p442
I2823
sVseen
p443
I269
sVseem
p444
I1547
sVocean
p445
I2492
sVmint
p446
I791
sVtheres
p447
I4042
sVcontents
p448
I3618
sVgear
p449
I2060
sVtiedyed
p450
I2414
sVlightblue
p451
I418
sVescalator
p452
I514
sVnecktie
p453
I1323
sVperson
p454
I66
sVclenched
p455
I2145
sVseethrough
p456
I1981
sVSHORTS
p457
I413
sVsnow
p458
I1559
sVeagerly
p459
I3462
sVmetallic
p460
I925
sVfitting
p461
I289
sVmaxi
p462
I1954
sVThey
p463
I189
sVpanties
p464
I1713
sVrides
p465
I1147
sVclunky
p466
I3340
sVcircles
p467
I1536
sVblouse
p468
I120
sVKEEPING
p469
I3134
sVwrists
p470
I1035
sVthough
p471
I1207
sVtye
p472
I3787
sVobject
p473
I203
sVcalfhigh
p474
I2403
sVSlender
p475
I2890
sVCAPRIS
p476
I2404
sVextending
p477
I1161
sVregular
p478
I2891
sVmouth
p479
I585
sVletter
p480
I1394
sVhearts
p481
I2710
sVFacing
p482
I4076
sVjean
p483
I89
sVlaughing
p484
I2169
sVslides
p485
I3023
sVHispanic
p486
I2200
sVmedical
p487
I1714
sVflop
p488
I664
sVmetal
p489
I938
sVdog
p490
I1548
sVPARCEL
p491
I3020
sVFACE
p492
I3464
sVWHITISH
p493
I3043
sVcami
p494
I2354
sVpoints
p495
I1715
sVcamo
p496
I719
sVdeeply
p497
I2341
sVpointy
p498
I1930
sVgrayandwhite
p499
I1506
sVbriskly
p500
I944
sVdot
p501
I644
sVUnion
p502
I2752
sValight
p503
I3341
sVOBJECT
p504
I2096
sVending
p505
I305
sVpadded
p506
I1739
sVcolors
p507
I577
sVbottled
p508
I2400
sVradio
p509
I3343
sVstepping
p510
I957
sVearth
p511
I3960
sVEuropean
p512
I2583
sVSTANDING
p513
I1395
sVtouches
p514
I797
sVbusy
p515
I1435
sVbelowtheknee
p516
I1610
sVshoesHis
p517
I3044
sVEiffel
p518
I3620
sVfolded
p519
I508
sVmens
p520
I2097
sVbush
p521
I3465
sVCAMERA
p522
I3125
sVsnickers
p523
I1560
sVfolks
p524
I1370
sVfolder
p525
I656
sVboyfriend
p526
I3503
sVsporting
p527
I1599
sVrectangle
p528
I2020
sVwearing
p529
I6
sVdo
p530
I1822
sVmixture
p531
I2706
sVsunglasses
p532
I197
sVcolorful
p533
I358
sV10
p534
I2911
sVbeater
p535
I2328
sVkaki
p536
I1204
sVheavyset
p537
I1128
sVpocket
p538
I246
sVtiled
p539
I2044
sVSKIN
p540
I3304
sVwedding
p541
I1172
sVX
p542
I2228
sVquarters
p543
I2859
sVcleanly
p544
I3136
sVruns
p545
I1122
sVbar
p546
I1716
sVshortsa
p547
I2708
sVgreens
p548
I2355
sVcovering
p549
I553
sVnicely
p550
I2229
sVtights
p551
I272
sVOver
p552
I1371
sVpatch
p553
I903
sVCapris
p554
I892
sVbag
p555
I32
sVbad
p556
I1199
sVshots
p557
I1728
sVidentify
p558
I3802
sVbah
p559
I3791
sVears
p560
I736
sVlettering
p561
I416
sVfair
p562
I941
sVfluffy
p563
I1231
sVLARGE
p564
I1004
sVpads
p565
I2533
sVShort
p566
I729
sVweird
p567
I3361
sVmeet
p568
I2616
sVskulls
p569
I1892
sVgladiator
p570
I1516
sVsubject
p571
I842
sVpastel
p572
I962
sVshaven
p573
I1844
sVlots
p574
I1575
sVaway
p575
I141
sVgentleman
p576
I440
sVshaved
p577
I662
sVJUST
p578
I2825
sVmud
p579
I3961
sVmug
p580
I2963
sVunable
p581
I2259
sVBUN
p582
I3137
sVfinger
p583
I1517
sVembroidery
p584
I2442
sVsorts
p585
I2443
sVskimpy
p586
I3466
sVwe
p587
I1909
sVneckline
p588
I431
sVwears
p589
I40
sVextend
p590
I2357
sVrims
p591
I2335
sVrolled
p592
I254
sVhandful
p593
I3623
sVhowever
p594
I3962
sVwhiteish
p595
I3443
sVshirtand
p596
I3467
sVcut
p597
I261
sVwear
p598
I515
sVmedallion
p599
I2753
sVHALF
p600
I2300
sVwth
p601
I3048
sVmodeling
p602
I3241
sVpicking
p603
I2895
sVpackages
p604
I2260
sVeshirt
p605
I2826
sVroller
p606
I1247
sVfaced
p607
I1611
sVNECK
p608
I1356
sVcow
p609
I3624
sVruffly
p610
I3625
sVBUTTON
p611
I1451
sVstrange
p612
I4020
sVagainst
p613
I481
sVemerald
p614
I3425
sVmutli
p615
I3963
sVlayered
p616
I1208
sVbet
p617
I3736
sVfaces
p618
I1052
sVNavy
p619
I3138
sVclasping
p620
I2118
sVALONG
p621
I3139
sVlenses
p622
I3964
sVpantsThe
p623
I3242
sVarmygreen
p624
I3793
sVunbuttoned
p625
I690
sVhad
p626
I392
sVpantHis
p627
I2159
sVUNDER
p628
I1819
sV20s
p629
I2218
sVheight
p630
I620
sVdirections
p631
I2153
sVhiplength
p632
I1069
sVpath
p633
I1515
sVwider
p634
I2827
sVblonde
p635
I245
sVheals
p636
I1104
sVchino
p637
I3035
sVspeak
p638
I3140
sVWERS
p639
I2479
sVunfurled
p640
I3853
sVclip
p641
I1392
sVputs
p642
I3794
sVropes
p643
I3347
sVLACES
p644
I2356
sVthree
p645
I482
sVbeen
p646
I1338
sVquickly
p647
I1093
sVmuch
p648
I1906
sVstrappy
p649
I773
sVmonkey
p650
I3912
sVbasic
p651
I2444
sVteenager
p652
I1382
sVdots
p653
I512
sVconversing
p654
I2845
sVgraphical
p655
I3599
sVfeathered
p656
I3369
sVworker
p657
I2254
sVFITTING
p658
I2709
sVlift
p659
I3469
sVBEIGE
p660
I1140
sVPOCKETS
p661
I2160
sVchild
p662
I299
sVcatch
p663
I3349
sVshirtblack
p664
I575
sVBAGS
p665
I2261
sVbuzzcut
p666
I3965
sVopenings
p667
I2264
sVtank
p668
I145
sVreddish
p669
I498
sVbuckled
p670
I2632
sVair
p671
I869
sVnear
p672
I316
sVneat
p673
I3796
sVblondish
p674
I3396
sVstopping
p675
I3351
sVbalance
p676
I2896
sVtans
p677
I2897
sVskirts
p678
I2535
sVcab
p679
I3156
sVcane
p680
I1015
sVOn
p681
I691
sVis
p682
I5
sVit
p683
I96
sVsequined
p684
I1845
sVcant
p685
I2161
sVerect
p686
I2814
sVLOW
p687
I2536
sVin
p688
I29
sVviolin
p689
I3049
sVt
p690
I116
sVmouse
p691
I2017
sVif
p692
I759
sVgrown
p693
I3797
sVbuckles
p694
I1893
sVcontaining
p695
I1661
sVbottles
p696
I2898
sVdescent
p697
I1061
sVnike
p698
I763
sVpinstriped
p699
I2702
sVthings
p700
I1481
sVmake
p701
I1416
sVundergarment
p702
I3244
sVCant
p703
I3176
sVbeside
p704
I1339
sVshirttan
p705
I1612
sVdrawstring
p706
I1200
sVbelly
p707
I2045
sVANOTHER
p708
I2021
sVbrownandwhite
p709
I2829
sVbluegray
p710
I1931
sVseveral
p711
I542
sVjacketblue
p712
I1635
sVshowing
p713
I632
sVgreyblack
p714
I1396
sVfairly
p715
I1676
sVbearded
p716
I1717
sVflipflops
p717
I433
sVMaybe
p718
I3471
sVbrownishred
p719
I3799
sVpinstripe
p720
I3353
sVrail
p721
I1238
sVdiffering
p722
I3800
sVrain
p723
I1493
sVhand
p724
I51
sVaccessorized
p725
I3770
sVdarkandlight
p726
I3966
sVCARRIES
p727
I2230
sVKhaki
p728
I2842
sVFEMALE
p729
I666
sVtopa
p730
I2359
sVkid
p731
I634
sVjeggings
p732
I3626
sVkept
p733
I2585
sVthicknesses
p734
I3820
sVlightyellow
p735
I2537
sVbrownandgray
p736
I3627
sVPUSHING
p737
I3354
sVcompartments
p738
I2262
sVragged
p739
I3141
sVmore
p740
I1745
sVdescending
p741
I2193
sVthe
p742
I26
sVflops
p743
I186
sVmusical
p744
I2405
sVleft
p745
I53
sVindigo
p746
I2263
sVphotographer
p747
I1910
sVjust
p748
I329
sVTHAT
p749
I753
sVathletic
p750
I231
sVphoto
p751
I548
sVlaptop
p752
I687
sVswearing
p753
I1958
sVhighneck
p754
I3654
sVFlip
p755
I3769
sVSTEPS
p756
I3622
sVthumbs
p757
I3345
sVhuman
p758
I2899
sVupturned
p759
I3142
sVtattooed
p760
I3245
sVyet
p761
I3246
sVteenaged
p762
I2493
sVhills
p763
I2586
sVbrassiere
p764
I3803
sVfurry
p765
I1111
sVTHEM
p766
I3430
sVroyal
p767
I792
sVGap
p768
I3629
sVcollard
p769
I988
sVspread
p770
I2129
sVboard
p771
I1123
sVduffel
p772
I975
sVjeweled
p773
I3804
sVoffwhite
p774
I822
sVhas
p775
I16
sVhat
p776
I104
sVjeansShe
p777
I3144
sVtrimming
p778
I1460
sVglittery
p779
I4048
sVturquoise
p780
I528
sVcasually
p781
I976
sVWIDE
p782
I2114
sVwhitetan
p783
I3455
sVbands
p784
I1240
sVposed
p785
I3474
sVpossible
p786
I1075
sVcaps
p787
I3630
sVbrownskinned
p788
I3558
sVpossibly
p789
I516
sVboxes
p790
I2130
sVSKINNED
p791
I4049
sVflopsShe
p792
I1289
sVbackground
p793
I814
sVcape
p794
I1030
sVshadow
p795
I1677
sVorangish
p796
I2629
sVburnt
p797
I2072
sVbushy
p798
I3051
sVapart
p799
I1148
sVshoulder
p800
I39
sVcolour
p801
I3116
sVappearing
p802
I1472
sVgift
p803
I2968
sVAlso
p804
I655
sVparka
p805
I1557
sVnude
p806
I1036
sVperforming
p807
I2637
sVorangeyred
p808
I3397
sVslouched
p809
I3631
sVbunShe
p810
I3442
sVpavement
p811
I674
sVsnug
p812
I2265
sVsteps
p813
I456
sVofficer
p814
I1473
sVpolished
p815
I4067
sVnight
p816
I1452
sVhung
p817
I1209
sVsecurity
p818
I2587
sVNikes
p819
I2061
sVright
p820
I48
sVold
p821
I754
sVblueandwhite
p822
I1489
sVcrowd
p823
I1184
sVpeople
p824
I569
sVcrown
p825
I2538
sVelderly
p826
I1085
sVborn
p827
I3632
sVsure
p828
I2201
sVvisibly
p829
I3947
sVPAIR
p830
I2831
sVKNEE
p831
I830
sVtheyre
p832
I3968
sVshortsHe
p833
I1446
sVbackHe
p834
I3675
sVHE
p835
I315
sVruffled
p836
I741
sVfor
p837
I397
sVbottom
p838
I225
sVpurple
p839
I86
sVzipup
p840
I1549
sVice
p841
I2073
sVcoverup
p842
I3889
sVruffles
p843
I905
sVHi
p844
I3969
sVPULLING
p845
I3146
sVpantyhose
p846
I709
sVAppears
p847
I1100
sVdisplayed
p848
I3157
sVHe
p849
I23
sVcord
p850
I1383
sVGray
p851
I2022
sVkhaki
p852
I102
sVbold
p853
I1507
sVpose
p854
I1911
sVillustration
p855
I1760
sVbinder
p856
I1527
sVyoke
p857
I1576
sVANKLE
p858
I1538
sVpost
p859
I2588
sVtrophy
p860
I2266
sVplat
p861
I2786
sVcowboy
p862
I1149
sVcoral
p863
I979
sVo
p864
I1436
sVsequin
p865
I3890
sVplunging
p866
I1955
sVmagazine
p867
I1329
sVmidlength
p868
I972
sVplus
p869
I1613
sVdone
p870
I3000
sVeight
p871
I2589
sVslightly
p872
I313
sVoutlines
p873
I3120
sVbath
p874
I2336
sVduke
p875
I3356
sVraised
p876
I625
sVdestination
p877
I2312
sVNike
p878
I555
sVkinky
p879
I3801
sVselfie
p880
I3248
sVTURNED
p881
I3808
sVdownShe
p882
I3971
sVDEEP
p883
I2406
sVson
p884
I1280
sVdown
p885
I78
sVhandbag
p886
I209
sVtopShe
p887
I2590
sVmagazines
p888
I3476
sVraises
p889
I2540
sVwrap
p890
I1076
sVHORIZONTAL
p891
I2046
sVgauzy
p892
I1678
sVfabric
p893
I746
sVwaits
p894
I1983
sVsupport
p895
I2098
sVtennis
p896
I71
sVfrill
p897
I3148
sVTEE
p898
I1461
sVstriding
p899
I1662
sVgrasping
p900
I1895
sVgreenblue
p901
I3972
sVway
p902
I616
sVspring
p903
I2797
sVjane
p904
I3052
sVcall
p905
I2882
sVflatsShe
p906
I1162
sVwas
p907
I963
sVballcap
p908
I2969
sVhappy
p909
I2541
sVVneckline
p910
I1956
sVsagging
p911
I3149
sVhead
p912
I132
sVmedium
p913
I253
sVform
p914
I933
sVstrapping
p915
I3730
sVforming
p916
I1577
sVheal
p917
I2495
sVconverse
p918
I918
sVgarments
p919
I3810
sVhear
p920
I1663
sVJean
p921
I2162
sVironon
p922
I3940
sVbundled
p923
I3811
sVinscription
p924
I2957
sVinside
p925
I291
sVattached
p926
I815
sVGARMENT
p927
I3427
sVmountain
p928
I3870
sVpanels
p929
I1482
sVtopblack
p930
I1474
sVtrim
p931
I206
sVbrightly
p932
I1020
sVcobbled
p933
I3973
sVshin
p934
I1846
sVsticks
p935
I2900
sVforearm
p936
I784
sVsaddles
p937
I3194
sVYOUNG
p938
I882
sVmuscular
p939
I1324
sVtrendy
p940
I3704
sVpredominantly
p941
I2490
sVwhitegrey
p942
I2074
sVfashioned
p943
I1016
sVfemales
p944
I2093
sVship
p945
I3250
sVFellow
p946
I3739
sVcheck
p947
I1664
sVshit
p948
I934
sVmarking
p949
I2901
sVCHECKERED
p950
I2638
sVoutstretched
p951
I2194
sVdotted
p952
I726
sVno
p953
I310
sVskirted
p954
I3251
sVrelax
p955
I3447
sVnd
p956
I3325
sVPossible
p957
I3055
sVtopped
p958
I1585
sVALSO
p959
I794
sVsetting
p960
I2075
sVholding
p961
I75
sVpapers
p962
I419
sVCeltics
p963
I3252
sVtie
p964
I161
sVpage
p965
I3751
sVEAR
p966
I3812
sVgreenwhite
p967
I2496
sVpicture
p968
I157
sVsling
p969
I985
sVfootball
p970
I3358
sVnotepad
p971
I3633
sVMohawk
p972
I3795
sVLAVENDER
p973
I3126
sVHOT
p974
I3792
sVSHOE
p975
I2023
sVribbing
p976
I3390
sVrolling
p977
I727
sVseeing
p978
I3198
sVdied
p979
I3814
sVjacked
p980
I1600
sVyounger
p981
I1340
sVbriefecase
p982
I2832
sVfastened
p983
I2231
sVlonger
p984
I592
sVglass
p985
I1074
sVreflector
p986
I3262
sVflag
p987
I1386
sVtogether
p988
I706
sVCUFFED
p989
I3655
sVjacket
p990
I38
sVBERMUDA
p991
I3036
sVKNEES
p992
I3294
sVtime
p993
I1623
sVbackward
p994
I1665
sVPONYTAIL
p995
I1932
sVSTRIPE
p996
I2054
sVgown
p997
I564
sVchilds
p998
I1156
sVblackandwhite
p999
I447
sVclosedtoed
p1000
I3456
sVdance
p1001
I1694
sVvarying
p1002
I3281
sVrod
p1003
I1792
sVskit
p1004
I2547
sVrof
p1005
I1729
sVleads
p1006
I1614
sVskate
p1007
I3479
sVgreywhite
p1008
I1437
sVfrockHer
p1009
I3634
sVskin
p1010
I303
sVchair
p1011
I1764
sVbomber
p1012
I2640
sVrectangles
p1013
I3635
sVmilk
p1014
I3254
sVrow
p1015
I2196
sVlayers
p1016
I1636
sVballet
p1017
I992
sVslipon
p1018
I760
sVver
p1019
I3480
sVMOVING
p1020
I3420
sVcupped
p1021
I3559
sVdeepyellow
p1022
I2446
sVpantHer
p1023
I2872
sVbackShe
p1024
I3145
sVenvironment
p1025
I2972
sVflowered
p1026
I602
sVvee
p1027
I3481
sVPRINTED
p1028
I1290
sVmarks
p1029
I2047
sVmelon
p1030
I2711
sVsneakers
p1031
I57
sVmust
p1032
I3948
sVbrown
p1033
I35
sVsmartphone
p1034
I1933
sVstring
p1035
I1934
sVblackyellow
p1036
I3482
sVwifebeater
p1037
I3268
sVkeeping
p1038
I2712
sVredish
p1039
I2099
sVknapsack
p1040
I640
sVkitten
p1041
I2267
sVma
p1042
I2485
sVeats
p1043
I3861
sVJersey
p1044
I3636
sVwore
p1045
I2256
sVAS
p1046
I2864
sVcheerleaders
p1047
I2715
sVeans
p1048
I3093
sVJust
p1049
I3637
sVlevel
p1050
I451
sVturns
p1051
I1141
sVgun
p1052
I1083
sVleave
p1053
I3483
sVitem
p1054
I483
sVSTREET
p1055
I2321
sVbrownish
p1056
I947
sVsubway
p1057
I2100
sVteal
p1058
I379
sVsidewalk
p1059
I248
sVwoven
p1060
I2268
sVround
p1061
I712
sVdis
p1062
I2903
sVupper
p1063
I469
sVblade
p1064
I2531
sVsays
p1065
I1210
sVshirta
p1066
I855
sVsign
p1067
I1438
sVdraping
p1068
I2301
sVshirts
p1069
I552
sVHOODIE
p1070
I2833
sVOrange
p1071
I3152
sVrun
p1072
I2641
sVblackandred
p1073
I3817
sVRed
p1074
I1730
sVdrinks
p1075
I2975
sVbagging
p1076
I3484
sVcargo
p1077
I247
sVstands
p1078
I217
sVAline
p1079
I2163
sVCASUAL
p1080
I3478
sVuniform
p1081
I518
sVreminiscent
p1082
I3056
sVgoes
p1083
I365
sVbooklet
p1084
I3705
sVillustrations
p1085
I2834
sVfalling
p1086
I856
sVground
p1087
I420
sVbadge
p1088
I704
sVblackgrey
p1089
I2337
sVfilled
p1090
I997
sVsupporting
p1091
I2591
sVjeansHis
p1092
I2514
sVunsure
p1093
I3639
sVcamisole
p1094
I1404
sVplad
p1095
I3545
sVMALL
p1096
I2739
sVwaering
p1097
I2131
sVmidshin
p1098
I2905
sVhairs
p1099
I3359
sVkakhi
p1100
I2377
sVwater
p1101
I385
sVINDIVIDUAL
p1102
I1957
sVbaseball
p1103
I328
sValone
p1104
I1984
sVblackpink
p1105
I2380
sValong
p1106
I151
sVappears
p1107
I126
sVbox
p1108
I533
sVboy
p1109
I131
sVunidentified
p1110
I3360
sVcoatblack
p1111
I2917
sVdusty
p1112
I3485
sVshift
p1113
I1642
sVbot
p1114
I3256
sVfloorlength
p1115
I1357
sVDead
p1116
I3641
sVbow
p1117
I546
sVornaments
p1118
I3299
sVbangs
p1119
I388
sVSeen
p1120
I1518
sVbob
p1121
I967
sVnylon
p1122
I3257
sVSIDES
p1123
I2976
sVBLURRY
p1124
I3486
sVStanding
p1125
I2126
sVteenage
p1126
I657
sVlove
p1127
I3487
sVhiking
p1128
I1358
sVextra
p1129
I2836
sVtuxedo
p1130
I1094
sVHOLDS
p1131
I1017
sVcloak
p1132
I1741
sVtartan
p1133
I2986
sVhightop
p1134
I1163
sVpuffed
p1135
I3154
sVfingerless
p1136
I3979
sVblck
p1137
I3488
sVsurroundings
p1138
I4073
sVhitop
p1139
I3980
sVphoneshe
p1140
I3205
sVmarket
p1141
I2407
sVraspberry
p1142
I3258
sVhandled
p1143
I1969
sVworking
p1144
I1212
sVloafers
p1145
I591
sVangry
p1146
I3490
sVcuffs
p1147
I531
sVlightcolored
p1148
I510
sVtightly
p1149
I2362
sVsports
p1150
I567
sVhandles
p1151
I678
sVwood
p1152
I3372
sViphone
p1153
I3981
sVBLACKWHITE
p1154
I3697
sVORANGE
p1155
I1281
sVshouldered
p1156
I2755
sVthru
p1157
I2447
sVwedgesShe
p1158
I2080
sVands
p1159
I3362
sVintently
p1160
I3155
sVentrance
p1161
I2269
sVhooked
p1162
I2018
sVafrican
p1163
I2050
sVwhiteandred
p1164
I3491
sVapparent
p1165
I2756
sVenvelope
p1166
I1494
sVlightgreen
p1167
I1528
sVbackpackShe
p1168
I3977
sVmarbled
p1169
I2101
sVdarkgrey
p1170
I2906
sVgrayandpink
p1171
I3492
sVolive
p1172
I374
sVstain
p1173
I3163
sVflares
p1174
I1423
sVgraphic
p1175
I236
sVBalding
p1176
I3301
sVmoccasin
p1177
I3818
sVcar
p1178
I1105
sVmotif
p1179
I4078
sVcap
p1180
I191
sVClean
p1181
I3516
sVcat
p1182
I1359
sVwallet
p1183
I935
sVprinting
p1184
I906
sVcan
p1185
I422
sVstature
p1186
I2757
sVfollowing
p1187
I3083
sVmaking
p1188
I2642
sVzippers
p1189
I1543
sVSLIGHTLY
p1190
I3058
sVplum
p1191
I1428
sVCAN
p1192
I3678
sVheart
p1193
I1360
sVcrazy
p1194
I3261
sVgrassy
p1195
I1912
sVfigure
p1196
I1341
sVhighheels
p1197
I2164
sVdistracted
p1198
I3842
sVpleated
p1199
I886
sVMid
p1200
I3363
sVBAG
p1201
I383
sVtinted
p1202
I2497
sVchin
p1203
I641
sVdropped
p1204
I2980
sVACCOMPANIED
p1205
I3533
sVblackrimmed
p1206
I3216
sVclothing
p1207
I348
sVlistens
p1208
I3060
sVpink
p1209
I50
sVsurgical
p1210
I1732
sVwinter
p1211
I615
sVTOTE
p1212
I1874
sVskater
p1213
I3364
sVnecklaces
p1214
I2049
sVwatching
p1215
I2738
sVpoking
p1216
I2758
sVdinner
p1217
I3970
sVthreequarters
p1218
I2545
sV1
p1219
I2338
sVcrosschested
p1220
I2995
sVsword
p1221
I1594
sVskates
p1222
I2291
sVtile
p1223
I1773
sVspeaks
p1224
I3365
sVpathway
p1225
I2907
sVmap
p1226
I2302
sVmas
p1227
I3823
sVdesigner
p1228
I1601
sVWEARNG
p1229
I2515
sVcocktail
p1230
I1561
sVplacket
p1231
I3131
sVmay
p1232
I694
sVAverage
p1233
I2714
sVspot
p1234
I993
sVAGAINST
p1235
I3061
sVaccessory
p1236
I2165
sVbreasted
p1237
I2364
sVlevi
p1238
I3983
sVdesigned
p1239
I1462
sVfloral
p1240
I211
sVwithe
p1241
I2853
sVpolkadots
p1242
I2025
sVlifting
p1243
I1062
sVman
p1244
I13
sVlightgray
p1245
I458
sVLarge
p1246
I1602
sVnatural
p1247
I2760
sVwaist
p1248
I188
sVliquid
p1249
I3984
sVtotebag
p1250
I3985
sVmaybe
p1251
I919
sVwheelchair
p1252
I2232
sVLA
p1253
I2352
sVJeans
p1254
I2498
sVPULLOVER
p1255
I3367
sVtale
p1256
I2644
sVbillowy
p1257
I3910
sVso
p1258
I994
sVHANDS
p1259
I1405
sVbasket
p1260
I1168
sVtall
p1261
I321
sVpulled
p1262
I144
sVtalk
p1263
I2908
sVtightfitting
p1264
I1774
sVcute
p1265
I2645
sVapprox
p1266
I2838
sVhightops
p1267
I2408
sVshoes
p1268
I10
sVOLDER
p1269
I2103
sVlongsleeve
p1270
I443
sVpointed
p1271
I777
sVhaircut
p1272
I626
sVmainly
p1273
I959
sVflips
p1274
I2761
sVyears
p1275
I1810
sVBOOKS
p1276
I3497
sVstretching
p1277
I2925
sVWhite
p1278
I604
sVstill
p1279
I914
sVTHE
p1280
I233
sVBlurry
p1281
I2762
sVblocked
p1282
I3197
sVlightwash
p1283
I3608
sVovals
p1284
I2763
sVpolice
p1285
I1066
sVthumb
p1286
I1986
sVcurly
p1287
I399
sVaccordion
p1288
I2542
sVholing
p1289
I2594
sVCOLOUR
p1290
I1740
sVtorn
p1291
I1987
sVcurls
p1292
I2409
sVdarkish
p1293
I3807
sVSILVER
p1294
I2596
sVforms
p1295
I3643
sVplatform
p1296
I801
sVwindow
p1297
I1221
sVkahki
p1298
I3263
sVmail
p1299
I2166
sVFLOOR
p1300
I3742
sVmain
p1301
I1201
sVSUV
p1302
I3368
sVapron
p1303
I590
sVtucked
p1304
I264
sVindeterminate
p1305
I3955
sVmatches
p1306
I1044
sVwhiteedged
p1307
I2646
sVdoll
p1308
I3839
sVcolorblocked
p1309
I2365
sVunderneath
p1310
I196
sVlunch
p1311
I1718
sVtouching
p1312
I607
sVmarkings
p1313
I864
sVShe
p1314
I24
sVhalf
p1315
I541
sVnot
p1316
I428
sVnow
p1317
I2132
sVhall
p1318
I1361
sVcapris
p1319
I285
sVname
p1320
I845
sVHOLDING
p1321
I688
sVshirtWith
p1322
I1537
sVarmhole
p1323
I3819
sVclutch
p1324
I921
sVYellow
p1325
I2366
sVensemble
p1326
I2313
sVweaing
p1327
I2499
sVpeasant
p1328
I2647
sVINFRONT
p1329
I3645
sVmessages
p1330
I3782
sVcummerbund
p1331
I3691
sVentirely
p1332
I3158
sVquarter
p1333
I737
sVwatchband
p1334
I2648
sVcapped
p1335
I3147
sVturtle
p1336
I1282
sVsquare
p1337
I559
sVholster
p1338
I3008
sVstarts
p1339
I3243
sVM
p1340
I3544
sVpoker
p1341
I2190
sVstrolls
p1342
I3830
sVBermuda
p1343
I2764
sVzebra
p1344
I1666
sVgreybrown
p1345
I3063
sVyear
p1346
I3646
sVlanky
p1347
I3534
sVgirl
p1348
I87
sVdescription
p1349
I2066
sVcanvas
p1350
I885
sVcontainer
p1351
I1025
sVopened
p1352
I747
sVhemmed
p1353
I2448
sVspace
p1354
I2133
sVblu
p1355
I3764
sVpetite
p1356
I2055
sVsquared
p1357
I2104
sVlooking
p1358
I97
sVcolorShe
p1359
I3824
sVcontained
p1360
I3064
sVbeige
p1361
I140
sVble
p1362
I3065
sVacrossthebody
p1363
I3499
sVsquares
p1364
I1529
sVshows
p1365
I682
sVeagle
p1366
I2982
sVgreenblack
p1367
I3159
sVAROUND
p1368
I1586
sVthong
p1369
I1406
sVsideways
p1370
I948
sVcoloured
p1371
I3174
sVcontain
p1372
I3743
sVINDETERMINATE
p1373
I3648
sVcart
p1374
I714
sVquite
p1375
I1213
sVflyer
p1376
I3989
sVlab
p1377
I1491
sVbesides
p1378
I3501
sVheadband
p1379
I717
sVcard
p1380
I1539
sVPROBABLY
p1381
I3444
sVWalking
p1382
I1086
sVfixed
p1383
I3918
sVbackside
p1384
I1624
sVflare
p1385
I2198
sVheadphones
p1386
I561
sVJEANS
p1387
I521
sVminidress
p1388
I1483
sVmotion
p1389
I2199
sVthing
p1390
I1232
sVjumping
p1391
I2910
sVplace
p1392
I1429
sVfootwear
p1393
I926
sVswing
p1394
I2983
sVplack
p1395
I3990
sVKID
p1396
I2841
sVthink
p1397
I1719
sVfirst
p1398
I3265
sVsuspender
p1399
I3826
sVflying
p1400
I2411
sVjacketblack
p1401
I1021
sVstriking
p1402
I3160
sVKitty
p1403
I3199
sVThere
p1404
I406
sVtanktop
p1405
I1211
sVone
p1406
I109
sVBlack
p1407
I565
sVfast
p1408
I1417
sVdirectly
p1409
I1913
sVreddishbrown
p1410
I2079
sVcarry
p1411
I500
sVchubby
p1412
I2105
sVring
p1413
I1257
sVopen
p1414
I215
sVpleaded
p1415
I1579
sVsize
p1416
I1362
sVcity
p1417
I1679
sVsheer
p1418
I693
sVchecked
p1419
I669
sVTHIGH
p1420
I2716
sVlap
p1421
I3128
sVcaught
p1422
I2026
sVFANCY
p1423
I3650
sVplastic
p1424
I274
sVchecker
p1425
I1695
sV2
p1426
I823
sVLOOKS
p1427
I3827
sVstuffed
p1428
I3066
sVswoosh
p1429
I2233
sVwhite
p1430
I7
sVspeaking
p1431
I1330
sVclasps
p1432
I2065
sVslashes
p1433
I3502
sVeyes
p1434
I1037
sVhug
p1435
I2984
sVmostly
p1436
I642
sVthat
p1437
I67
sVfloppy
p1438
I1531
sVshawl
p1439
I1101
sVwaistline
p1440
I1513
sVcheerleading
p1441
I2985
sVLOOKING
p1442
I1373
sVflowery
p1443
I1124
sVvinyl
p1444
I3264
sVdate
p1445
I3495
sVflowers
p1446
I455
sVholder
p1447
I1794
sVthan
p1448
I826
sVmidstep
p1449
I3045
sVwide
p1450
I343
sVtelevision
p1451
I3651
sV12
p1452
I3828
sV15
p1453
I2912
sV14
p1454
I3829
sVbodyhugging
p1455
I3504
sVsections
p1456
I2347
sVNIKE
p1457
I2314
sVcrossshoulder
p1458
I2272
sVspecs
p1459
I3505
sVcoats
p1460
I2765
sVshortdark
p1461
I3371
sVwere
p1462
I2449
sVHEELS
p1463
I1960
sVDESIGN
p1464
I1990
sVpeacoat
p1465
I3461
sVwandering
p1466
I3506
sVand
p1467
I1
sVGOWN
p1468
I2412
sVhairline
p1469
I1823
sVSANDALS
p1470
I716
sVshimmering
p1471
I3798
sVZIPPED
p1472
I3993
sVparking
p1473
I2501
sVturned
p1474
I426
sVYELLOW
p1475
I878
sVJapanese
p1476
I1871
sVOUTSIDE
p1477
I3653
sVans
p1478
I1271
sVany
p1479
I1241
sVlonghair
p1480
I4065
sVBOTH
p1481
I1578
sVhooded
p1482
I202
sVsilhouette
p1483
I2078
sVfashionable
p1484
I2234
sVdownwards
p1485
I1214
sVaside
p1486
I841
sVnote
p1487
I2367
sVequipment
p1488
I3161
sVpantswhite
p1489
I3773
sVtake
p1490
I1625
sVSTRIPPED
p1491
I3150
sVinterior
p1492
I3266
sVhorizontallystriped
p1493
I3247
sVblunt
p1494
I3995
sVrelaxed
p1495
I2106
sVbutterfly
p1496
I1989
sVhanding
p1497
I3068
sVskinned
p1498
I501
sVmultiple
p1499
I901
sVopposite
p1500
I402
sVtrack
p1501
I781
sVINTO
p1502
I2649
sVneatly
p1503
I1012
sVmarbleized
p1504
I3822
sVzigzag
p1505
I2304
sVfalls
p1506
I360
sVPOCKET
p1507
I2107
sVprinted
p1508
I234
sVsheets
p1509
I3267
sVDarkhaired
p1510
I3610
sVpair
p1511
I17
sVknee
p1512
I123
sVgreyish
p1513
I1258
sVlawn
p1514
I2235
sVBrunette
p1515
I2543
sVpantsand
p1516
I2202
sVboys
p1517
I1723
sVaverage
p1518
I942
sVsale
p1519
I3069
sVbeaded
p1520
I1875
sVLUGGAGE
p1521
I3689
sVADULT
p1522
I1115
sVstockings
p1523
I484
sVprofessional
p1524
I1696
sVsalt
p1525
I1811
sVaccented
p1526
I2368
sVSPEAKING
p1527
I3996
sVshop
p1528
I1851
sVwalking
p1529
I52
sVshot
p1530
I1297
sVshow
p1531
I936
sVhairwearing
p1532
I2913
sVjeansand
p1533
I2915
sVshirtred
p1534
I3609
sVten
p1535
I4014
sVscoopneck
p1536
I2595
sVdarkcolored
p1537
I556
sVling
p1538
I2801
sVbright
p1539
I111
sVlettered
p1540
I2236
sVshoe
p1541
I493
sVpump
p1542
I3832
sVcorner
p1543
I1551
sVcurled
p1544
I1129
sVWe
p1545
I1233
sVWoman
p1546
I235
sVFLIPFLOPS
p1547
I2766
sVhandlebars
p1548
I3400
sVstair
p1549
I2415
sVflouncy
p1550
I2722
sVoutside
p1551
I441
sVonly
p1552
I734
sVgoing
p1553
I485
sVblack
p1554
I2
sVraglan
p1555
I1852
sVkneelength
p1556
I330
sVrobe
p1557
I460
sVwool
p1558
I1667
sVcammo
p1559
I3997
sVslouch
p1560
I3680
sVplump
p1561
I3269
sVbridge
p1562
I2489
sVpajamas
p1563
I3099
sVCLOSELY
p1564
I3348
sVpurchase
p1565
I3772
sVget
p1566
I1650
sVH
p1567
I3373
sVdiamonds
p1568
I2650
sVmidriff
p1569
I782
sVUNDERNEATH
p1570
I1269
sVshorthaired
p1571
I1824
sVcannot
p1572
I1762
sVtealcolored
p1573
I3054
sVnearly
p1574
I1603
sVlighter
p1575
I432
sVdye
p1576
I2500
sVcandles
p1577
I3642
sVHAS
p1578
I331
sVHAT
p1579
I1298
sVteens
p1580
I2108
sVblends
p1581
I2051
sVsecondary
p1582
I3986
sVclosure
p1583
I1876
sVreveal
p1584
I2203
sVfaceing
p1585
I2544
sVtopgrey
p1586
I3323
sV20something
p1587
I2369
sVmanilla
p1588
I4018
sVleather
p1589
I237
sVchecks
p1590
I2450
sVdie
p1591
I3816
sVwhere
p1592
I955
sVreveals
p1593
I1796
sVTONES
p1594
I3681
sVclosures
p1595
I3374
sVblurred
p1596
I1550
sVtwotone
p1597
I1775
sVcollege
p1598
I1668
sVseam
p1599
I1087
sVhoes
p1600
I1185
sVcontains
p1601
I3676
sVsport
p1602
I930
sVLINE
p1603
I4019
sVBELT
p1604
I1669
sVwraps
p1605
I4062
sVsideburns
p1606
I1742
sVbrace
p1607
I1998
sVornament
p1608
I2914
sVlabel
p1609
I1936
sVweapons
p1610
I3375
sV3
p1611
I980
sVcomplexion
p1612
I715
sVLIGHTER
p1613
I1853
sVbetween
p1614
I800
sVgeometric
p1615
I1331
sVreading
p1616
I651
sVacross
p1617
I134
sVoversized
p1618
I601
sVjumper
p1619
I788
sVtux
p1620
I2651
sVcheckered
p1621
I278
sVvertical
p1622
I495
sVPAST
p1623
I1795
sVscreen
p1624
I1439
sVletterman
p1625
I2754
sVlaced
p1626
I1046
sVguitar
p1627
I1519
sVshirtwhite
p1628
I1697
sVFLORAL
p1629
I3164
sVarticle
p1630
I2843
sVcomb
p1631
I2502
sVcome
p1632
I710
sVacrossed
p1633
I3658
sVmans
p1634
I668
sVglassesShe
p1635
I3271
sVpoke
p1636
I3718
sVmanw
p1637
I3071
sVmany
p1638
I768
sVcars
p1639
I3647
sVwearings
p1640
I2844
sVflaps
p1641
I3165
sVhairWearing
p1642
I2887
sVs
p1643
I857
sVIndividual
p1644
I1150
sVphoneHe
p1645
I2731
sVmani
p1646
I3511
sVwheels
p1647
I1259
sVlemon
p1648
I3930
sVwearinga
p1649
I2597
sVcomes
p1650
I497
sVsihrt
p1651
I1173
sVduty
p1652
I3998
sVamong
p1653
I1776
sVattache
p1654
I3166
sVcolor
p1655
I208
sVBABY
p1656
I2997
sVjeans
p1657
I37
sVperiod
p1658
I2988
sVants
p1659
I2370
sVslits
p1660
I3931
sVupdo
p1661
I1797
sVpole
p1662
I1112
sVstretched
p1663
I2168
sVpropped
p1664
I3662
sVpolo
p1665
I139
sVjacketlight
p1666
I3660
sVcrew
p1667
I1065
sVpigtails
p1668
I1637
sVboat
p1669
I1116
sVcaring
p1670
I807
sVunopened
p1671
I2916
sVscrunchie
p1672
I1914
sVVISIBLE
p1673
I3453
sVstretch
p1674
I1532
sVundershirt
p1675
I454
sVbaldheaded
p1676
I3744
sVmark
p1677
I1937
sVshies
p1678
I3906
sVdecorations
p1679
I2120
sVstripped
p1680
I293
sVreflective
p1681
I1484
sVcords
p1682
I2852
sVhardly
p1683
I4001
sVmary
p1684
I3270
sVdolly
p1685
I3864
sVdirection
p1686
I421
sVshopping
p1687
I170
sVjuts
p1688
I1812
sVHANGING
p1689
I3682
sVstreaks
p1690
I3644
sVTWO
p1691
I1962
sVtiger
p1692
I3376
sVturtleneck
p1693
I977
sVcovers
p1694
I793
sVpilot
p1695
I2989
sVcase
p1696
I439
sVsoccer
p1697
I4021
sVpredominately
p1698
I1151
sVfolding
p1699
I2460
sVTo
p1700
I3200
sVtribal
p1701
I3512
sVdressa
p1702
I2769
sVzippered
p1703
I943
sVcast
p1704
I2503
sVblackframe
p1705
I1854
sVdressy
p1706
I1186
sVcollarless
p1707
I1626
sVnewspaper
p1708
I824
sVTYPE
p1709
I2598
sVtook
p1710
I3291
sVslippers
p1711
I650
sVjeaned
p1712
I2652
sVshirtgrey
p1713
I1038
sVvest
p1714
I172
sVboxers
p1715
I3693
sVwaisted
p1716
I1974
sVtwists
p1717
I2237
sVTennis
p1718
I2770
sVpurse
p1719
I70
sVcoffee
p1720
I1217
sVLooking
p1721
I2771
sVmiddle
p1722
I344
sVblak
p1723
I3513
sVevening
p1724
I1703
sVheels
p1725
I178
sVhijab
p1726
I2306
sVpinks
p1727
I2109
sVblackbrown
p1728
I2772
sVblag
p1729
I3073
sVProfile
p1730
I3514
sVhelmet
p1731
I821
sVdifferent
p1732
I751
sVdragging
p1733
I1465
sVvivid
p1734
I3377
sVTIGHTS
p1735
I2416
sVbluejean
p1736
I3834
sVbowl
p1737
I1520
sVmulticolor
p1738
I1374
sVsame
p1739
I702
sVtrip
p1740
I3378
sVgentlemen
p1741
I2027
sVfood
p1742
I1498
sVbermuda
p1743
I1242
sVpad
p1744
I1938
sVtriangles
p1745
I2360
sVcyan
p1746
I2713
sVlite
p1747
I2275
sVpai
p1748
I1777
sVdocument
p1749
I1638
sVpan
p1750
I3835
sVTRIMMING
p1751
I3379
sVpantHe
p1752
I3306
sVextended
p1753
I378
sVbarefoot
p1754
I989
sVclue
p1755
I2592
sVPANT
p1756
I973
sVI
p1757
I831
sVpinkblack
p1758
I2820
sVIS
p1759
I168
sVfoam
p1760
I3539
sVIT
p1761
I1152
sVcompanion
p1762
I2451
sVpersons
p1763
I745
sVrunning
p1764
I238
sVedges
p1765
I847
sVapair
p1766
I1475
sVadvertisement
p1767
I2815
sVIN
p1768
I322
sVclimbing
p1769
I2052
sVcartoon
p1770
I1342
sVbreak
p1771
I3612
sVSHOES
p1772
I314
sVpatchwork
p1773
I2135
sVexpression
p1774
I3072
sVIs
p1775
I1040
sVfloor
p1776
I335
sVIt
p1777
I436
sVblueyellow
p1778
I4002
sVwithout
p1779
I1041
sVbottle
p1780
I336
sVIn
p1781
I881
sVPALM
p1782
I4022
sVmodel
p1783
I3380
sVWINE
p1784
I3659
sVId
p1785
I3381
sVIf
p1786
I2339
sVPink
p1787
I2504
sVsummer
p1788
I999
sVoutdoor
p1789
I611
sVvent
p1790
I2944
sVbeing
p1791
I705
sVtip
p1792
I3357
sVOVER
p1793
I795
sVneon
p1794
I387
sVBACK
p1795
I638
sVrest
p1796
I1187
sVoxford
p1797
I1857
sVCHEST
p1798
I1991
sVhanded
p1799
I2639
sVslanting
p1800
I1698
sVGIRL
p1801
I1053
sVguys
p1802
I3212
sVcaptured
p1803
I2992
sVhalfway
p1804
I1798
sVsweatpants
p1805
I643
sVwomans
p1806
I470
sVsleaves
p1807
I3386
sVrose
p1808
I1243
sVseems
p1809
I445
sVexcept
p1810
I1430
sVinstrument
p1811
I1862
sVshoesCarrying
p1812
I3837
sVHANDBAG
p1813
I1418
sVcarring
p1814
I827
sVswim
p1815
I1699
sVpedestrain
p1816
I3387
sVBearded
p1817
I3600
sVblackandblue
p1818
I3388
sVaround
p1819
I124
sVrises
p1820
I3540
sVread
p1821
I1260
sVhunched
p1822
I1961
sVmop
p1823
I1778
sVdark
p1824
I18
sVswirl
p1825
I3095
sVtraffic
p1826
I3075
sVbandage
p1827
I2774
sVlistening
p1828
I1013
sVstyled
p1829
I774
sVTall
p1830
I1157
sVaiming
p1831
I3838
sVlady
p1832
I85
sVheadpiece
p1833
I3168
sVrear
p1834
I609
sVvertically
p1835
I1463
sVDESIGNS
p1836
I4003
sVdarkgreen
p1837
I1118
sVOld
p1838
I3440
sVclad
p1839
I2371
sVpregnant
p1840
I2661
sVbracelet
p1841
I346
sVfacing
p1842
I213
sVpleats
p1843
I1681
sVthighs
p1844
I898
sValways
p1845
I2782
sVdownward
p1846
I770
sVMan
p1847
I205
sVDress
p1848
I3302
sVshadowy
p1849
I2703
sVtrying
p1850
I1826
sVsneaker
p1851
I1419
sVexposed
p1852
I1325
sVshortshorts
p1853
I2662
sVconfused
p1854
I3821
sVexposes
p1855
I2276
sVyellowgreen
p1856
I1627
sVshortsblack
p1857
I2943
sVtable
p1858
I1182
sVbobbed
p1859
I1588
sVNew
p1860
I1555
sV72
p1861
I4028
sVrocks
p1862
I3129
sVmatching
p1863
I340
sVmustard
p1864
I1390
sVscandals
p1865
I3519
sVHello
p1866
I3057
sVouts
p1867
I3276
sVbluegrey
p1868
I1234
sVtote
p1869
I218
sVCOLOR
p1870
I1292
sVtube
p1871
I1312
sVsearing
p1872
I3076
sVstops
p1873
I1137
sVFADED
p1874
I2311
sVteardrop
p1875
I2717
sVblackblue
p1876
I2848
sVSIDEWALK
p1877
I1700
sVAPPEARS
p1878
I1701
sVknife
p1879
I3277
sVhustle
p1880
I3664
sVCASE
p1881
I2305
sVMEDIUM
p1882
I2204
sVgrayandblack
p1883
I1350
sVbusiness
p1884
I408
sVraincoat
p1885
I2308
sVbathrobe
p1886
I2274
sVunkempt
p1887
I3613
sVfitness
p1888
I2452
sVunusual
p1889
I3840
sVBAGGY
p1890
I2718
sVbroken
p1891
I2918
sVFaded
p1892
I4030
sVCARDIGAN
p1893
I3921
sVleggingsShe
p1894
I3509
sVCOLOURED
p1895
I3712
sVon
p1896
I22
sVstone
p1897
I1898
sVpackage
p1898
I720
sVlighted
p1899
I2987
sVof
p1900
I11
sVfringe
p1901
I2309
sVtigers
p1902
I3162
sVSTRIPES
p1903
I1540
sVslender
p1904
I461
sVcrocs
p1905
I1633
sVopentoed
p1906
I1916
sVtwopiece
p1907
I2505
sVstand
p1908
I1343
sVpockets
p1909
I304
sVmixed
p1910
I2170
sVSTRIPED
p1911
I1363
sVmean
p1912
I2889
sVbackup
p1913
I3665
sVor
p1914
I108
sVroad
p1915
I949
sVladies
p1916
I1562
sVNo
p1917
I1813
sVwhites
p1918
I2310
sVshaw
p1919
I3233
sVimage
p1920
I480
sVgarb
p1921
I3391
sVlegged
p1922
I1077
sVearring
p1923
I2418
sVBRIGHT
p1924
I927
sVharness
p1925
I2919
sVrising
p1926
I4005
sVBut
p1927
I4000
sVdetermine
p1928
I4006
sVstrip
p1929
I725
sVSTOCKINGS
p1930
I3170
sVgrayandblue
p1931
I3657
sVyour
p1932
I3666
sVmustardcolored
p1933
I2600
sVpurplish
p1934
I1628
sVbuds
p1935
I1384
sVlog
p1936
I1825
sVher
p1937
I28
sVarea
p1938
I474
sVremoving
p1939
I3576
sVthere
p1940
I672
sVsloped
p1941
I1992
sVshoesand
p1942
I3392
sVstart
p1943
I3667
sVlow
p1944
I345
sVstars
p1945
I1159
sVDressed
p1946
I1771
sVhem
p1947
I265
sVbubble
p1948
I1682
sVshirtblue
p1949
I850
sVstrait
p1950
I3273
sVcomplete
p1951
I1993
sVapir
p1952
I1375
sVenough
p1953
I2653
sVpositioned
p1954
I2136
sVLoosely
p1955
I2419
sVtailored
p1956
I1902
sVamongst
p1957
I4007
sVwite
p1958
I3077
sVwiping
p1959
I3844
sVwalkway
p1960
I749
sVSmall
p1961
I3521
sVblueish
p1962
I1283
sVwith
p1963
I8
sVshouldlength
p1964
I3522
sVpull
p1965
I1026
sVshirtless
p1966
I2993
sVSHOWING
p1967
I2775
sVbucket
p1968
I1827
sVLong
p1969
I968
sVstrawberry
p1970
I2453
sVnecklength
p1971
I3668
sVpeeking
p1972
I1552
sVdirty
p1973
I1248
sVtones
p1974
I2137
sVsuitcase
p1975
I396
sVflats
p1976
I309
sVgrass
p1977
I978
sVbracelets
p1978
I859
sVrust
p1979
I1994
sVdarker
p1980
I384
sVad
p1981
I1313
sVcarpi
p1982
I2454
sVaccents
p1983
I550
sVdescribe
p1984
I1106
sVam
p1985
I1629
sVdeep
p1986
I851
sVan
p1987
I80
sVap
p1988
I1743
sVas
p1989
I101
sVat
p1990
I79
sVsholder
p1991
I1995
sVwalks
p1992
I105
sVsheath
p1993
I1828
sVmoves
p1994
I1453
sVcream
p1995
I395
sVcollared
p1996
I130
sVyoga
p1997
I917
sVbrighter
p1998
I3741
sVShorts
p1999
I3079
sVrubber
p2000
I1355
sVfield
p2001
I1332
sV5
p2002
I1731
sVsomeones
p2003
I907
sVyou
p2004
I884
sVtrash
p2005
I2340
sVLady
p2006
I848
sVRear
p2007
I3524
sVAsian
p2008
I210
sVlapel
p2009
I1939
sVcomplected
p2010
I2920
sV60s
p2011
I3171
sVseparate
p2012
I1535
sVstudents
p2013
I3847
sVsymbol
p2014
I922
sVsouls
p2015
I3253
sVslant
p2016
I1303
sVincludes
p2017
I1963
sVwaving
p2018
I2776
sVstocky
p2019
I1670
sVMedium
p2020
I1563
sVrecent
p2021
I3553
sVbrownhaired
p2022
I3873
sVdecorated
p2023
I1720
sVpool
p2024
I2420
sVbuilding
p2025
I453
sVgraygreen
p2026
I3393
sVclosedtoe
p2027
I3525
sVwife
p2028
I1877
sVthermos
p2029
I3260
sVcurve
p2030
I1174
sVdyed
p2031
I1314
sVstroller
p2032
I523
sVnavyblue
p2033
I836
sVseat
p2034
I2167
sVrimmed
p2035
I733
sVcrosschest
p2036
I3526
sVCHILD
p2037
I2482
sVkapris
p2038
I2777
sVhusky
p2039
I2654
sVSHOESHE
p2040
I3122
sVonce
p2041
I3417
sVtanned
p2042
I1671
sVstrings
p2043
I1496
sVall
p2044
I212
sVlooped
p2045
I3278
sVcapres
p2046
I3849
sVlace
p2047
I530
sVpointing
p2048
I790
sVUnknown
p2049
I1589
sVlack
p2050
I1385
sVunique
p2051
I3475
sVnone
p2052
I3856
sVslimming
p2053
I3671
sVslung
p2054
I302
sVcarying
p2055
I2750
sVsmoking
p2056
I1923
sVtalks
p2057
I1299
sVlacy
p2058
I738
sVheadscarf
p2059
I2759
sVchildren
p2060
I1789
sVcarpet
p2061
I2028
sVBrown
p2062
I1194
sVWOMAN
p2063
I370
sVchain
p2064
I961
sVsparkle
p2065
I3777
sVlining
p2066
I853
sVsparkling
p2067
I4011
sVgrayand
p2068
I1964
sVdont
p2069
I3289
sVto
p2070
I60
sVtail
p2071
I185
sVdressing
p2072
I2372
sVpantsblack
p2073
I2373
sVTAN
p2074
I897
sVenjoying
p2075
I2923
sVta
p2076
I3527
sVBODY
p2077
I3173
sVpaying
p2078
I3529
sVwoman
p2079
I19
sVparcel
p2080
I2456
sVWATCHING
p2081
I3927
sVsitting
p2082
I852
sVvery
p2083
I163
sVpuffy
p2084
I580
sVsoled
p2085
I1005
sVfocus
p2086
I2971
sVpantsHe
p2087
I1420
sVTIGHT
p2088
I2172
sVlaceup
p2089
I2029
sVfall
p2090
I950
sVthreequarter
p2091
I1175
sVhems
p2092
I1564
sVsoles
p2093
I251
sVwhiteblue
p2094
I2655
sVtshort
p2095
I3175
sVsohrts
p2096
I3850
sVcable
p2097
I3530
sVlaying
p2098
I2238
sVBOOTS
p2099
I1223
sVmittens
p2100
I3686
sVlarge
p2101
I91
sVsand
p2102
I1249
sVundone
p2103
I2720
sVGLOVES
p2104
I3531
sVsmall
p2105
I153
sVearbuds
p2106
I887
sVTRAVEL
p2107
I3431
sVTshirtblack
p2108
I2846
sVPACK
p2109
I1250
sVbraid
p2110
I1164
sVelevator
p2111
I3290
sVandor
p2112
I3851
sVfence
p2113
I1107
sVappearance
p2114
I2692
sVtee
p2115
I119
sVVnecked
p2116
I1508
sVpast
p2117
I270
sVstrung
p2118
I3279
sVpurpleandwhite
p2119
I3673
sVunidentifiable
p2120
I2058
sVdesign
p2121
I192
sVpass
p2122
I1899
sVfurther
p2123
I2656
sVcasual
p2124
I390
sVribbon
p2125
I1067
sVwill
p2126
I3432
sVwhat
p2127
I355
sVTANK
p2128
I1497
sVsun
p2129
I676
sVsection
p2130
I1251
sVrip
p2131
I3003
sVbrief
p2132
I923
sVburgundy
p2133
I377
sVTALKING
p2134
I2924
sVredorange
p2135
I2195
sVpurpleblack
p2136
I3621
sVpublic
p2137
I1376
sVcontrast
p2138
I2778
sVrevealing
p2139
I1315
sVtattoos
p2140
I1855
sVfull
p2141
I352
sVruffle
p2142
I1966
sVcurvedtop
p2143
I3395
sVbowtie
p2144
I1604
sVloose
p2145
I214
sVposes
p2146
I3143
sVcylindrical
p2147
I2657
sVtoed
p2148
I785
sVsandalsShe
p2149
I1215
sVstrong
p2150
I3674
sVpatterened
p2151
I2421
sVkissing
p2152
I3549
sVredpink
p2153
I2965
sVTROUSER
p2154
I2507
sVcolored
p2155
I47
sVahead
p2156
I538
sVSLEEVELESS
p2157
I1856
sVhighheeled
p2158
I860
sVairport
p2159
I1333
sVarent
p2160
I2422
sVpick
p2161
I1900
sVnarrow
p2162
I837
sVSOMEONE
p2163
I3472
sVtwotoned
p2164
I1707
sVelongated
p2165
I2998
sVbrimmed
p2166
I1188
sVsticking
p2167
I1006
sVVEST
p2168
I2239
sVarmholes
p2169
I3097
sVW
p2170
I3336
sVadidas
p2171
I1814
sVstrolling
p2172
I1744
sVclapping
p2173
I2053
sVbermudas
p2174
I3595
sVwhile
p2175
I74
sVbacked
p2176
I2931
sVchunky
p2177
I1326
sVCARRYING
p2178
I368
sVbootsHe
p2179
I3532
sVpulls
p2180
I1056
sVactress
p2181
I3384
sVRED
p2182
I551
sVhispanic
p2183
I3628
sVash
p2184
I2140
sVeye
p2185
I545
sVtakes
p2186
I489
sVfaint
p2187
I1800
sVtexting
p2188
I1300
sVtwo
p2189
I227
sVshite
p2190
I1565
sVpearl
p2191
I2548
sV6
p2192
I2376
sVtaken
p2193
I3151
sVmegaphone
p2194
I3854
sVstretchy
p2195
I2549
sVrubbing
p2196
I3272
sVLEFT
p2197
I554
sVteen
p2198
I1630
sVflat
p2199
I180
sVdiamond
p2200
I1422
sVdoor
p2201
I1117
sVflap
p2202
I854
sVaisle
p2203
I3780
sVgrabbing
p2204
I4017
sVbrisk
p2205
I2658
sVNot
p2206
I3203
sVAmerican
p2207
I879
sVformfitting
p2208
I1351
sVstick
p2209
I1070
sVlapels
p2210
I1873
sVreddishorange
p2211
I3974
sViPod
p2212
I3745
sVslouchy
p2213
I2423
sVhurry
p2214
I2602
sVSe
p2215
I2840
sVmaryjane
p2216
I3728
sVvneckline
p2217
I1431
sVFEET
p2218
I3855
sVfleece
p2219
I1252
sVAdidas
p2220
I1442
sVsleeveless
p2221
I136
sVchinlength
p2222
I1801
sVmall
p2223
I505
sVpressing
p2224
I3857
sVdeeppink
p2225
I2603
sVv
p2226
I818
sVwellgroomed
p2227
I3677
sVmale
p2228
I118
sVmarble
p2229
I3283
sVladys
p2230
I2659
sVbeautiful
p2231
I1683
sVpurchases
p2232
I3284
sVpony
p2233
I175
sVhairIs
p2234
I3275
sVpushes
p2235
I1108
sVpusher
p2236
I3177
sVPATTERN
p2237
I1793
sVlightbrown
p2238
I1997
sVCAP
p2239
I1917
sVpushed
p2240
I549
sVFULL
p2241
I2973
sVnumbers
p2242
I1721
sVintricate
p2243
I3308
sVsharp
p2244
I2926
sVmagenta
p2245
I1109
sVswung
p2246
I2508
sVdress
p2247
I56
sVCaucasian
p2248
I593
sVouterwear
p2249
I3715
sVhuge
p2250
I1216
sVhemline
p2251
I1583
sVHOODED
p2252
I1829
sVbanding
p2253
I1616
sVkhakis
p2254
I584
sVrather
p2255
I1878
sVCOAT
p2256
I1195
sVDRINK
p2257
I3285
sVblad
p2258
I3858
sVblueand
p2259
I3081
sVbrowns
p2260
I2110
sVLove
p2261
I3992
sVwheeling
p2262
I2210
sVhillsShe
p2263
I2378
sVfrilly
p2264
I1651
sVbags
p2265
I240
sVflorescent
p2266
I3859
sVShoes
p2267
I1766
sVwhiteandgray
p2268
I3860
sVpladded
p2269
I2081
sVfrills
p2270
I2660
sVBOX
p2271
I3517
sVOTHER
p2272
I3535
sVlighting
p2273
I3399
sVblackShe
p2274
I3286
sVcoming
p2275
I1334
sVhorizontal
p2276
I284
sVa
p2277
I0
sVburns
p2278
I2967
sVshort
p2279
I25
sVcrowded
p2280
I1615
sVcoat
p2281
I92
sVDENIM
p2282
I1045
sVhauling
p2283
I2779
sVsleve
p2284
I3221
sVjacketwhite
p2285
I2705
sVshade
p2286
I1305
sVredwhite
p2287
I1253
sVplaying
p2288
I998
sVpans
p2289
I908
sVadorned
p2290
I2550
sVrounded
p2291
I685
sVhelp
p2292
I2604
sVearing
p2293
I1088
sVpant
p2294
I529
sVstains
p2295
I2928
sVinstep
p2296
I2780
sVargyle
p2297
I2273
sVMID
p2298
I2030
sVredandpink
p2299
I3862
sVauburn
p2300
I1262
sVheld
p2301
I467
sVisnt
p2302
I2723
sVpaper
p2303
I282
sVthrough
p2304
I333
sVbrim
p2305
I883
sVAround
p2306
I2486
sVsmiling
p2307
I537
sVdepicts
p2308
I3805
sVits
p2309
I645
sVpinkred
p2310
I2424
sVfeatures
p2311
I2157
sVhighlighted
p2312
I3591
sVstyle
p2313
I306
sVrapidly
p2314
I3084
sVshirtlight
p2315
I2175
sV23
p2316
I3287
sVbangle
p2317
I2781
sVtiedye
p2318
I3402
sVLONG
p2319
I438
sVSTRAP
p2320
I2139
sVlate
p2321
I1652
sVbows
p2322
I1580
sVlaces
p2323
I290
sVSUIT
p2324
I1476
sVclothed
p2325
I2040
sVcool
p2326
I2974
sVmight
p2327
I1176
sVlacey
p2328
I2551
sVsomeone
p2329
I603
sVsomebody
p2330
I1763
sVmanila
p2331
I2990
sVentire
p2332
I2682
sVATHLETIC
p2333
I1254
sVspectacles
p2334
I3050
sVmales
p2335
I2929
sVhunter
p2336
I2724
sVVictorian
p2337
I3178
sVbeads
p2338
I2707
sVfrizzy
p2339
I2379
sVrank
p2340
I3954
sVfoot
p2341
I319
sVlinking
p2342
I4024
sVPALE
p2343
I1095
sVslipper
p2344
I2553
sVflipflop
p2345
I981
sVPRESCRIPTION
p2346
I2082
sVloosefitting
p2347
I1364
sVeven
p2348
I1928
sVfully
p2349
I1830
sVloosely
p2350
I1397
sVswimsuit
p2351
I2783
sVpiping
p2352
I1316
sVslicked
p2353
I1915
sVSUITCASE
p2354
I3536
sVPolo
p2355
I2552
sVhipcovering
p2356
I1621
sVpolostyle
p2357
I2866
sVheavy
p2358
I366
sVbrunette
p2359
I825
sVtilted
p2360
I1306
sVbends
p2361
I832
sVweight
p2362
I1153
sVp
p2363
I3638
sVwhitestriped
p2364
I3510
sVhouse
p2365
I1858
sVfish
p2366
I2663
sVhard
p2367
I1049
sVGentleman
p2368
I1704
sVberet
p2369
I2057
sVyellowbrown
p2370
I3188
sVwires
p2371
I2773
sVfist
p2372
I1509
sVscratching
p2373
I1495
sVedged
p2374
I1680
sVblues
p2375
I1443
sVbeyond
p2376
I3683
sVbackpacks
p2377
I2174
sVevent
p2378
I2425
sVbraided
p2379
I1387
sVreally
p2380
I1398
sVolivegreen
p2381
I1307
sVsilky
p2382
I2207
sVembellishment
p2383
I2784
sVflower
p2384
I566
sVlipstick
p2385
I2240
sVblacks
p2386
I1815
sVlightpink
p2387
I2605
sVsurrounded
p2388
I2426
sVSHORTLY
p2389
I3698
sVmidsection
p2390
I2427
sVPHONE
p2391
I2138
sVballed
p2392
I3684
sVsafety
p2393
I964
sVhill
p2394
I3401
sV7
p2395
I2277
sVprint
p2396
I158
sVhangers
p2397
I3537
sVissue
p2398
I3685
sVcaucasian
p2399
I990
sVsatin
p2400
I3385
sVflesh
p2401
I2390
sVsmock
p2402
I1591
sVchambray
p2403
I3538
sVbald
p2404
I427
sVVERTICAL
p2405
I4023
sVdirt
p2406
I1918
sVcombed
p2407
I1879
sVasymmetrical
p2408
I2930
sVloafer
p2409
I1444
sVbase
p2410
I1063
sVSHE
p2411
I337
sVbagShe
p2412
I3179
sVput
p2413
I996
sVMale
p2414
I286
sVaso
p2415
I3687
sVTan
p2416
I1349
sVbushes
p2417
I1590
sVpairs
p2418
I2241
sVpalepink
p2419
I2601
sVamerican
p2420
I1705
sVfruit
p2421
I3167
sVTHROUGH
p2422
I3679
sVSHe
p2423
I1901
sVdaisy
p2424
I2849
sVwired
p2425
I3515
sVpilots
p2426
I3288
sVbookbag
p2427
I543
sVtab
p2428
I3900
sVcoloring
p2429
I2689
sVstatue
p2430
I2991
sVforwards
p2431
I1684
sVblush
p2432
I3688
sVGRAYISH
p2433
I1821
sVnumber
p2434
I574
sVfancy
p2435
I1308
sVtwisted
p2436
I3239
sVfeet
p2437
I149
sVIndian
p2438
I2725
sVBASEBALL
p2439
I2494
sVleast
p2440
I2176
sVblank
p2441
I1477
sVSMALL
p2442
I1746
sVblackand
p2443
I1808
sVguard
p2444
I2480
sVglitter
p2445
I3541
sVheads
p2446
I3542
sVhatHe
p2447
I3518
sVjet
p2448
I1445
sVscript
p2449
I4025
sVstreetShe
p2450
I3403
sVleading
p2451
I1272
sVhangs
p2452
I576
sVID
p2453
I1399
sVpinned
p2454
I1919
sVpaint
p2455
I2665
sVopentoe
p2456
I2315
sVASIAN
p2457
I1089
sVpassed
p2458
I3404
sVnad
p2459
I3710
sVmajority
p2460
I4047
sVcompartment
p2461
I3866
sVstore
p2462
I659
sVbowed
p2463
I1920
sVHEELED
p2464
I1831
sVbehind
p2465
I167
sVpark
p2466
I1554
sVdraped
p2467
I450
sVtieHe
p2468
I3085
sVpart
p2469
I739
sVmuscled
p2470
I3867
sVcrop
p2471
I809
sVrifle
p2472
I1617
sVredandyellow
p2473
I4080
sVSkinny
p2474
I2242
sVUNIFORM
p2475
I4058
sVstairs
p2476
I425
sVleotard
p2477
I2606
sVkind
p2478
I630
sVtunic
p2479
I519
sVsemicircular
p2480
I3463
sVfold
p2481
I3868
sVdouble
p2482
I1071
sVgrey
p2483
I41
sVshortswhite
p2484
I2666
sVyouth
p2485
I2667
sVbride
p2486
I3189
sVdetermined
p2487
I3086
sVcuff
p2488
I924
sVoutdoors
p2489
I912
sVtoward
p2490
I394
sVBACKPACK
p2491
I660
sVtraveling
p2492
I3013
sVmickey
p2493
I2278
sVblackandgray
p2494
I1130
sVurban
p2495
I3956
sValongside
p2496
I2607
sVcreases
p2497
I2458
sVpedestrian
p2498
I287
sVblond
p2499
I499
sVcreased
p2500
I2668
sVwindbreaker
p2501
I1940
sVshirtHe
p2502
I2554
sVaged
p2503
I613
sVblackgreen
p2504
I3181
sVfading
p2505
I3869
sVballerina
p2506
I3005
sVcardigan
p2507
I391
sVbuilt
p2508
I2669
sVflared
p2509
I695
sVdancing
p2510
I828
sVclosecropped
p2511
I2726
sVTEESHIRT
p2512
I3182
sVdrapes
p2513
I1722
sVofficers
p2514
I3183
sVcropped
p2515
I300
sVsilvery
p2516
I3088
sVlit
p2517
I2429
sValso
p2518
I46
sVlifts
p2519
I796
sVlip
p2520
I3184
sVbuild
p2521
I740
sVTEAL
p2522
I4027
sVWith
p2523
I1408
sVtool
p2524
I2070
sVdeepred
p2525
I3001
sVplay
p2526
I3543
sVtowards
p2527
I353
sVelectric
p2528
I2727
sVrucksack
p2529
I1967
sVVERY
p2530
I1605
sVreach
p2531
I504
sVdressShe
p2532
I2071
sVcigarette
p2533
I1388
sVconnecting
p2534
I3300
sVcharm
p2535
I3872
sVbustier
p2536
I2608
sVposition
p2537
I1948
sVnothing
p2538
I1566
sVcheckers
p2539
I3292
sVThe
p2540
I12
sVsunhat
p2541
I2670
sVextremely
p2542
I1859
sVappear
p2543
I596
sVpatterned
p2544
I194
sVJacket
p2545
I2428
sVMAROON
p2546
I2539
sVbreaker
p2547
I2090
sVFROM
p2548
I1999
sVPEDESTRIAN
p2549
I3132
sVmobile
p2550
I1499
sVclear
p2551
I700
sVWATCH
p2552
I1203
sVHAVING
p2553
I2091
sVtraditional
p2554
I1132
sVgiving
p2555
I3311
sVclean
p2556
I1500
sVBritish
p2557
I2147
sVbandanna
p2558
I3029
sVhips
p2559
I479
sVwording
p2560
I1533
sVtaxi
p2561
I2599
sVgolf
p2562
I1747
sVgold
p2563
I239
sVBOY
p2564
I1440
sVheavily
p2565
I2728
sVdoctors
p2566
I2875
sVhugging
p2567
I1860
sVwasted
p2568
I3617
sVcaries
p2569
I2851
sVsohes
p2570
I4060
sVstoned
p2571
I4031
sVBirkenstock
p2572
I3874
sVgreenandblue
p2573
I4081
sVHas
p2574
I579
sVfind
p2575
I3293
sVgiant
p2576
I1941
sVkeychain
p2577
I3546
sVscooter
p2578
I2141
sVcamel
p2579
I1975
sVallwhite
p2580
I3547
sVPUMPS
p2581
I3875
sVpretty
p2582
I2031
sVmoney
p2583
I3836
sVCARRIAGE
p2584
I3831
sV8
p2585
I1510
sVcircle
p2586
I1293
sVyelloworange
p2587
I3382
sVhip
p2588
I298
sVhis
p2589
I31
sVhit
p2590
I1799
sVdistance
p2591
I1459
sVkilt
p2592
I3383
sVattire
p2593
I902
sVsunny
p2594
I2788
sVgrocery
p2595
I722
sVtrees
p2596
I1454
sVspeckled
p2597
I1640
sVWhile
p2598
I2142
sVrings
p2599
I1982
sVbreast
p2600
I621
sVclosely
p2601
I819
sVduring
p2602
I2609
sVsilk
p2603
I2459
sVhim
p2604
I256
sVPUT
p2605
I4034
sVgloved
p2606
I3187
sVpaleblue
p2607
I3876
sVWEARS
p2608
I462
sVsleeve
p2609
I62
sVSCOOP
p2610
I3074
sVTHIS
p2611
I951
sVOvercoat
p2612
I1833
sVstroll
p2613
I3656
sVSOCKS
p2614
I1294
sVnecked
p2615
I2209
sVgloves
p2616
I435
sVexercise
p2617
I1514
sVFemale
p2618
I327
sVlimegreen
p2619
I1235
sVoxfordstyle
p2620
I3938
sVBlonde
p2621
I2280
sVSOLES
p2622
I1165
sVknickers
p2623
I4035
sVapproaching
p2624
I2381
sVbulky
p2625
I1400
sVkarate
p2626
I3652
sVbars
p2627
I2344
sVset
p2628
I646
sVSHOPPING
p2629
I1177
sVShirt
p2630
I2083
sVFLAT
p2631
I2904
sVheshe
p2632
I3785
sVjade
p2633
I3426
sVTIED
p2634
I1344
sVsex
p2635
I2791
sVtouch
p2636
I1748
sVsee
p2637
I444
sVindividual
p2638
I296
sVbare
p2639
I786
sVare
p2640
I76
sVsea
p2641
I2000
sVTIE
p2642
I2294
sVclose
p2643
I707
sVbark
p2644
I4036
sVark
p2645
I3405
sVarm
p2646
I93
sVbaldness
p2647
I2854
sVknees
p2648
I182
sValine
p2649
I3640
sVgree
p2650
I3690
sVmuted
p2651
I1078
sVpictures
p2652
I870
sVonepiece
p2653
I2281
sVcurrently
p2654
I1079
sVdrooping
p2655
I1389
sVthongs
p2656
I2430
sVvarious
p2657
I2509
sVpantsa
p2658
I3100
sVprobably
p2659
I1765
sVcrosswalk
p2660
I2112
sVsundress
p2661
I1317
sVReebok
p2662
I3249
sVpictured
p2663
I1125
sVavailable
p2664
I3548
sVflashlight
p2665
I2477
sVpaisley
p2666
I2510
sVgenes
p2667
I2835
sVindoors
p2668
I2375
sVabovetheknee
p2669
I1501
sVzipped
p2670
I805
sVsole
p2671
I677
sVdarkred
p2672
I1352
sVoutfit
p2673
I263
sVSERIOUSLY
p2674
I3813
sVAfrican
p2675
I913
sVheather
p2676
I2719
sVzipper
p2677
I723
sVjacketdark
p2678
I2664
sVbronze
p2679
I2730
sVAND
p2680
I129
sVboth
p2681
I184
sVTeenage
p2682
I3406
sVblazer
p2683
I466
sVrestaurant
p2684
I3879
sVtapered
p2685
I2177
sVbarely
p2686
I1534
sVsuede
p2687
I1861
sVeggplant
p2688
I3692
sVbuzz
p2689
I1545
sVGreen
p2690
I2289
sVwhole
p2691
I2001
sVlanyard
p2692
I798
sVbluepurple
p2693
I2932
sVBRUNETTE
p2694
I2002
sVheaded
p2695
I1706
sVsimple
p2696
I1464
sVdim
p2697
I3815
sVMULTICOLORED
p2698
I3090
sVpamphlet
p2699
I3880
sVdances
p2700
I2178
sVWHO
p2701
I2881
sVbench
p2702
I2184
sVbluejeans
p2703
I858
sVbelt
p2704
I142
sVplatinum
p2705
I3882
sVsuspenders
p2706
I952
sVdescribed
p2707
I3694
sVpocketbook
p2708
I839
sVARMS
p2709
I2037
sVMost
p2710
I3695
sVnape
p2711
I2143
sVwraparound
p2712
I3407
sVTALL
p2713
I2282
sVbrick
p2714
I953
sVimportant
p2715
I2171
sVWomen
p2716
I1084
sVresting
p2717
I803
sVsweetheart
p2718
I2382
sVsleeved
p2719
I61
sVflight
p2720
I1521
sVHER
p2721
I372
sVpacks
p2722
I3696
sVBALD
p2723
I3409
sVgas
p2724
I3883
sVelse
p2725
I1263
sVMinnie
p2726
I4075
sVhi
p2727
I3759
sVgal
p2728
I2059
sVsleeves
p2729
I81
sVginger
p2730
I3240
sVSLIP
p2731
I3002
sVHEM
p2732
I2179
sVwheeled
p2733
I1080
sVplants
p2734
I1968
sVheavier
p2735
I3884
sVfur
p2736
I424
sVlook
p2737
I670
sVsolid
p2738
I502
sVstraight
p2739
I195
sVbill
p2740
I1863
sVbatch
p2741
I4041
sVsmile
p2742
I2484
sVcrutch
p2743
I2933
sVrope
p2744
I2856
sVpace
p2745
I1641
sVbikini
p2746
I1266
sVsmart
p2747
I2478
sVleaning
p2748
I606
sVcurving
p2749
I1377
sVmidback
p2750
I2317
sVraven
p2751
I3932
sVmoustache
p2752
I2213
sVgreengrey
p2753
I2794
sVloop
p2754
I2440
sVpack
p2755
I88
sVseams
p2756
I2556
sVstrapless
p2757
I1113
sVcompact
p2758
I3202
sVleans
p2759
I675
sVembroidered
p2760
I2610
sVdecoration
p2761
I1781
sVrim
p2762
I1618
sVtriple
p2763
I3550
sVloosened
p2764
I3232
sVready
p2765
I2283
sVexiting
p2766
I3004
sVsweaterblue
p2767
I4026
sVethnicity
p2768
I3580
sVfunny
p2769
I3551
sVgrayblue
p2770
I2491
sVfedora
p2771
I1032
sVmaids
p2772
I3552
sVAWAY
p2773
I2557
sVelevated
p2774
I3091
sVshorter
p2775
I928
sVkimono
p2776
I1273
sVstilettos
p2777
I2934
sVcorridor
p2778
I1943
sV9
p2779
I4044
sVray
p2780
I2180
sVshoulderShe
p2781
I3975
sVsliver
p2782
I2214
sVhallway
p2783
I1142
sVSTYLE
p2784
I2215
sVstrips
p2785
I1018
sVflowy
p2786
I1133
sVhatShe
p2787
I4045
sVThen
p2788
I3042
sVkeys
p2789
I2672
sVSleeveless
p2790
I4046
sVStyle
p2791
I4015
sVCroc
p2792
I3789
sVoverweight
p2793
I1064
sVflows
p2794
I2511
sVm
p2795
I3788
sVBASKETBALL
p2796
I3006
sVmoving
p2797
I1274
sVstripe
p2798
I138
sVWHITE
p2799
I232
sVsandals
p2800
I63
sVsectioned
p2801
I2999
sVstack
p2802
I1284
sVbootcut
p2803
I2673
sVPINK
p2804
I639
sVearly
p2805
I1587
sVbeanie
p2806
I1236
sVshoulderHer
p2807
I3087
sVolder
p2808
I407
sVmakes
p2809
I3554
sVwedged
p2810
I2858
sVunderwear
p2811
I3231
sVconcrete
p2812
I1353
sVcheer
p2813
I2512
sVedge
p2814
I1178
sVkelly
p2815
I2795
sVwedges
p2816
I1126
sVGirl
p2817
I780
sVclasped
p2818
I875
sVshirrt
p2819
I3555
sVcomposed
p2820
I2685
sVeyeglasses
p2821
I350
sVknot
p2822
I3433
sVdesk
p2823
I2573
sVSeems
p2824
I2513
sVpuffer
p2825
I3153
sVnylons
p2826
I2113
sVDARK
p2827
I273
sVshape
p2828
I1512
sVcamouflage
p2829
I612
sVHAVE
p2830
I1733
sVusing
p2831
I627
sVwblack
p2832
I3191
sVvnecked
p2833
I2299
sVafro
p2834
I2285
sVscrunchy
p2835
I3410
sVjumpsuit
p2836
I880
sVbearing
p2837
I3598
sVsandal
p2838
I1189
sVgreenyellow
p2839
I1848
sVtablet
p2840
I1096
sVcup
p2841
I649
sVyellowwhite
p2842
I2946
sValternate
p2843
I3296
sVGREY
p2844
I622
sVshortcut
p2845
I3699
sVcolorHe
p2846
I3297
sVhues
p2847
I2796
sVpurpleblue
p2848
I3887
sVlocation
p2849
I3556
sVscrunched
p2850
I3700
sVHands
p2851
I3412
sVBoth
p2852
I954
sVjutting
p2853
I2558
sVclutches
p2854
I3092
sVfrilled
p2855
I3014
sVbig
p2856
I412
sVcouple
p2857
I909
sVbib
p2858
I3888
sVgame
p2859
I3701
sVclutched
p2860
I3557
sVtowel
p2861
I939
sVbit
p2862
I1237
sVskintone
p2863
I3978
sVwings
p2864
I3702
sVtranslucent
p2865
I2860
sVflannel
p2866
I636
sVpainted
p2867
I2527
sVON
p2868
I312
sVBURGUNDY
p2869
I3731
sVd
p2870
I2244
sVsemi
p2871
I3298
sVshaped
p2872
I1114
sVOF
p2873
I755
sVpillar
p2874
I3703
sVballs
p2875
I3098
sVstiletto
p2876
I1849
sVglove
p2877
I1864
sVshapes
p2878
I1134
sVindividuals
p2879
I1119
sVmoccasins
p2880
I2935
sVstylish
p2881
I1447
sVOR
p2882
I532
sVfolders
p2883
I3871
sVLittle
p2884
I3192
sVmotor
p2885
I3018
sVmauve
p2886
I1365
sVduck
p2887
I3019
sVsome
p2888
I160
sVback
p2889
I44
sVPOLO
p2890
I1946
sVlips
p2891
I3193
sVGOING
p2892
I2674
sVpalm
p2893
I1685
sVhurriedly
p2894
I2346
sVanklelength
p2895
I1120
sVmirror
p2896
I2675
sVPRINT
p2897
I2383
sVpale
p2898
I446
sVWEARING
p2899
I166
sVgradually
p2900
I3007
sVsheen
p2901
I3460
sVjewelry
p2902
I1944
sVtshrt
p2903
I2936
sVpushedup
p2904
I3891
sVhairband
p2905
I3195
sVpen
p2906
I2676
sVWRIST
p2907
I1166
sVDOT
p2908
I3489
sVpushers
p2909
I2432
sVornate
p2910
I2745
sVdroopy
p2911
I2217
sVpea
p2912
I1865
sVeither
p2913
I761
sVeyeglass
p2914
I1000
sVtancolored
p2915
I3196
sVeating
p2916
I1196
sVsalmon
p2917
I1090
sVIts
p2918
I2334
sVcontinuing
p2919
I3892
sVstep
p2920
I403
sVCHEPPALS
p2921
I3706
sVobscured
p2922
I2115
sVby
p2923
I280
sVsporty
p2924
I2076
sVYELLOWISH
p2925
I3707
sVhandbags
p2926
I2144
sVanything
p2927
I1686
sVmost
p2928
I1653
sVgreying
p2929
I1809
sVpackpack
p2930
I2798
sVtruck
p2931
I3738
sVwrinkles
p2932
I1058
sVpiled
p2933
I3894
sVonother
p2934
I3303
sVLooks
p2935
I1643
sVshins
p2936
I2286
sVwrinkled
p2937
I647
sVpantsuit
p2938
I2582
sVforearms
p2939
I2799
sVshiny
p2940
I338
sVblock
p2941
I1644
sVVans
p2942
I3227
sVcutoff
p2943
I1345
sVgarbage
p2944
I2245
sVinto
p2945
I171
sVwithin
p2946
I2862
sVYoung
p2947
I417
sVframed
p2948
I534
sVTheir
p2949
I708
sVblousea
p2950
I3415
sVclack
p2951
I2677
sVprimarily
p2952
I2800
sVframes
p2953
I844
sVOPEN
p2954
I2516
sVsideview
p2955
I4052
sVrows
p2956
I2981
sVsad
p2957
I3067
sVapparently
p2958
I3916
sVplacing
p2959
I3708
sVsock
p2960
I1581
sV20
p2961
I3863
sVlong
p2962
I33
sVbaggy
p2963
I283
sVsuit
p2964
I154
sVforward
p2965
I179
sVgrayandred
p2966
I3185
sVwaistband
p2967
I867
sVMATCHING
p2968
I3062
sVPATTERNED
p2969
I1750
sVhimself
p2970
I2287
sVTUNIC
p2971
I4053
sVinches
p2972
I893
sVposter
p2973
I2116
sVadjusting
p2974
I1866
sVblueblack
p2975
I1708
sVSatchel
p2976
I2517
sVmidthigh
p2977
I742
sVredandgray
p2978
I4054
sVcloth
p2979
I888
sVyellowishgreen
p2980
I3009
sVupright
p2981
I1522
sVline
p2982
I535
sVpain
p2983
I3806
sVdull
p2984
I2433
sVraising
p2985
I3010
sVfades
p2986
I2384
sVhair
p2987
I20
sVWARING
p2988
I3560
sVskull
p2989
I1592
sVbrightblue
p2990
I932
sVup
p2991
I84
sVus
p2992
I619
sVpaired
p2993
I558
sVBOOK
p2994
I2678
sVmature
p2995
I2559
sVfaded
p2996
I430
sVbluewhite
p2997
I1039
sVsimilar
p2998
I1409
sVweraing
p2999
I2679
sVinsignia
p3000
I2117
sVadults
p3001
I1127
sVpencil
p3002
I1081
sVPerhaps
p3003
I3895
sVcover
p3004
I1057
sVimages
p3005
I2307
sVsingle
p3006
I1335
sVpattered
p3007
I2048
sVcurb
p3008
I2181
sVInsignia
p3009
I3366
sVTh
p3010
I2288
sVhome
p3011
I1769
sVshirtgreen
p3012
I1455
sVcurtain
p3013
I3922
sVcotton
p3014
I982
sVstiffly
p3015
I3094
sVrainbow
p3016
I1567
sVCapri
p3017
I931
sVshortsShe
p3018
I2732
sVpeach
p3019
I525
sVcorners
p3020
I4083
sVMay
p3021
I2318
sVfixing
p3022
I2802
sVbacks
p3023
I2216
sVMary
p3024
I3663
sVTO
p3025
I711
sVStudent
p3026
I3896
sVdepartment
p3027
I2863
sVnice
p3028
I896
sVbrushing
p3029
I3307
sVsmiles
p3030
I3201
sVdraw
p3031
I3711
sVtrouser
p3032
I1285
sVscrub
p3033
I3561
sVCOLORED
p3034
I762
sVdrawstrings
p3035
I4016
sVsided
p3036
I3562
sVbreasts
p3037
I3416
sVAN
p3038
I1060
sVhelping
p3039
I4056
sVCarries
p3040
I2680
sVAT
p3041
I956
sVdrab
p3042
I3713
sVformal
p3043
I701
sVwrinkle
p3044
I1880
sVsides
p3045
I342
sVshoesShe
p3046
I386
sVwristband
p3047
I1441
sValley
p3048
I3507
sVCANVAS
p3049
I1802
sVe
p3050
I2611
sVSLEEVE
p3051
I838
sVovertop
p3052
I3563
sVcrease
p3053
I3564
sVage
p3054
I1190
sVholes
p3055
I1027
sVbleached
p3056
I1553
sVAn
p3057
I255
sVAs
p3058
I2612
sVbeverage
p3059
I1191
sVfitted
p3060
I371
sVwalker
p3061
I3565
sVhaving
p3062
I1009
sVbuttoning
p3063
I2978
sVSUNGLASSES
p3064
I1301
sVsharply
p3065
I3103
sVscooped
p3066
I1687
sVhint
p3067
I2463
sVknotted
p3068
I2803
sVhighwaisted
p3069
I2937
sVcobalt
p3070
I3566
sVtotes
p3071
I3567
sVgroceries
p3072
I2681
sVgo
p3073
I536
sVgrays
p3074
I3309
sVligh
p3075
I3775
sVGuy
p3076
I1881
sVbluish
p3077
I1530
sVgraywhite
p3078
I3714
sVSomeone
p3079
I1867
sVcrossover
p3080
I2413
sVasphalt
p3081
I4029
sVfenced
p3082
I1780
sVyoung
p3083
I82
sVnose
p3084
I1202
sVbrownred
p3085
I2804
sVglases
p3086
I3310
sVstriping
p3087
I1654
sVweather
p3088
I2351
sVsuite
p3089
I1327
sVhints
p3090
I3899
sVDRESS
p3091
I683
sVHEEL
p3092
I3282
sVUmbrella
p3093
I3438
sVsleevless
p3094
I1803
sVfamily
p3095
I2847
sVrandom
p3096
I3342
sVsequins
p3097
I2464
sVPEACH
p3098
I2865
sVlogos
p3099
I2102
sVinset
p3100
I2630
sVALL
p3101
I2519
sVwave
p3102
I3716
sVgrid
p3103
I3274
sVwavy
p3104
I648
sVputting
p3105
I1424
sVcellular
p3106
I3204
sVdrinking
p3107
I1154
sVtutu
p3108
I2733
sVposture
p3109
I3418
sVweapon
p3110
I2323
sVwearin
p3111
I3207
sVstiff
p3112
I3717
sVgender
p3113
I1224
sVbutton
p3114
I121
sVgreyblue
p3115
I1295
sVmottled
p3116
I3897
sVsleave
p3117
I2084
sVrace
p3118
I2561
sVflopsHe
p3119
I1158
sVrack
p3120
I2385
sVslow
p3121
I3070
sVsmaller
p3122
I1523
sVgripping
p3123
I3012
sVpleat
p3124
I4057
sVfolds
p3125
I1179
sVpepper
p3126
I1787
sVboots
p3127
I100
sVwaking
p3128
I1832
sVjump
p3129
I2032
sVcrook
p3130
I1816
sVblowing
p3131
I3117
sVgraying
p3132
I1225
sVbraids
p3133
I2041
sVacid
p3134
I1970
sVspaghetti
p3135
I1192
sVwidebrimmed
p3136
I2734
sVindex
p3137
I2562
sVWHAT
p3138
I2683
sVAGED
p3139
I3186
sVplays
p3140
I2867
sVsweats
p3141
I1526
sVopaque
p3142
I2033
sVcone
p3143
I2584
sVslight
p3144
I1367
sVroadway
p3145
I3528
sVVneck
p3146
I873
sVcell
p3147
I190
sVwaiting
p3148
I974
sVclipboard
p3149
I1724
sVpoles
p3150
I2613
sVflowing
p3151
I486
sVbird
p3152
I1903
sVwhiteblack
p3153
I843
sVbody
p3154
I173
sVwidelegged
p3155
I2684
sVstance
p3156
I1456
sVleg
p3157
I242
sVLight
p3158
I764
sVgathered
p3159
I1688
sVpushing
p3160
I405
sVyellowblack
p3161
I2787
sVgreay
p3162
I3101
sVMIDDLE
p3163
I2868
sVobjects
p3164
I1050
sVlet
p3165
I2246
sVothers
p3166
I1607
sVponytails
p3167
I2290
sVgesturing
p3168
I2546
sVsportcoat
p3169
I3982
sVwaistlength
p3170
I2004
sVgreat
p3171
I1582
sVChinese
p3172
I1945
sVdistressed
p3173
I1734
sVlarger
p3174
I1568
sVshades
p3175
I889
sVBack
p3176
I1709
sV34
p3177
I663
sVsuggests
p3178
I3885
sVpearshaped
p3179
I3568
sVarmpit
p3180
I3016
sVPULLED
p3181
I2563
sVpajama
p3182
I2518
sVthats
p3183
I681
sVwig
p3184
I2614
sVapple
p3185
I3419
sVTUCKED
p3186
I2938
sVSide
p3187
I3619
sVmessengers
p3188
I4063
sVHAIR
p3189
I325
sVwit
p3190
I2146
sVboxy
p3191
I995
sVsirt
p3192
I2564
sVcheerleader
p3193
I1782
sVoval
p3194
I1169
sVresembling
p3195
I3994
sVsneakersHe
p3196
I3312
sVsinging
p3197
I1645
sVcausal
p3198
I1817
sVlime
p3199
I459
sVstanding
p3200
I137
sVstrapped
p3201
I373
sVuse
p3202
I3421
sVfrom
p3203
I90
sVzip
p3204
I637
sViced
p3205
I3893
sVhosiery
p3206
I3102
sVshadowed
p3207
I3355
sVnext
p3208
I347
sVlowheeled
p3209
I2894
sVfew
p3210
I846
sVcapri
p3211
I271
sVcamera
p3212
I169
sVshortsand
p3213
I2398
sVvehicle
p3214
I1502
sVtoy
p3215
I2488
sVstage
p3216
I756
sVflaring
p3217
I4064
sVcapre
p3218
I3569
sVsort
p3219
I578
sVcharcoal
p3220
I969
sVpopped
p3221
I3719
sVcrisscrossing
p3222
I2560
sVformally
p3223
I3206
sVSHIRT
p3224
I250
sVcarryng
p3225
I3898
sVWHICH
p3226
I2966
sVshortblue
p3227
I3720
sVtrail
p3228
I3313
sVcarrying
p3229
I30
sVABOVE
p3230
I1922
sVtattered
p3231
I3314
sVbaby
p3232
I442
sVshoelaces
p3233
I1354
sVTHICK
p3234
I4033
sVwomen
p3235
I257
sVdepiction
p3236
I3573
sVSHOULDERS
p3237
I1503
sVcrosses
p3238
I861
sVanimals
p3239
I3570
sVLIKE
p3240
I2615
sVcheetah
p3241
I2353
sVf
p3242
I3315
sVthis
p3243
I288
sVeshoes
p3244
I2939
sVride
p3245
I2869
sVFREELY
p3246
I3781
sVTSHIRT
p3247
I628
sVmediumlight
p3248
I3169
sVcrossed
p3249
I448
sVthin
p3250
I260
sVpaints
p3251
I1407
sVGREEN
p3252
I816
sVbend
p3253
I3572
sVwedge
p3254
I595
sVHIs
p3255
I2465
sVbent
p3256
I249
sVwearinf
p3257
I3790
sVprocess
p3258
I2805
sVTOP
p3259
I599
sVslim
p3260
I389
sVpieces
p3261
I2806
sVhigh
p3262
I143
sVslit
p3263
I876
sVtag
p3264
I802
sVpulling
p3265
I423
sVsomething
p3266
I128
sVslip
p3267
I376
sVpelvis
p3268
I2807
sVtriangle
p3269
I2208
sVtan
p3270
I72
sVFLOPS
p3271
I1672
sVskirt
p3272
I64
sVCOLLAR
p3273
I1302
sVHIP
p3274
I2617
sVlegging
p3275
I1432
sVHIS
p3276
I437
sVpatter
p3277
I2005
sVpure
p3278
I1935
sVstole
p3279
I2363
sVIMAGE
p3280
I3901
sVholds
p3281
I259
sVFACIAL
p3282
I4004
sVwhiteandgreen
p3283
I3902
sVjacketShe
p3284
I3721
sVlocated
p3285
I3722
sVforest
p3286
I1725
sVanimal
p3287
I1010
sVbandana
p3288
I2035
sVtoddler
p3289
I1180
sVcuffed
p3290
I614
sVcamoflauge
p3291
I2468
sVcircular
p3292
I1146
sVprofile
p3293
I718
sVyellowish
p3294
I1286
sVbuildings
p3295
I1378
sVrailings
p3296
I3135
sVblocks
p3297
I2006
sVAfricanAmerican
p3298
I1710
sVhalter
p3299
I1485
sVLEATHER
p3300
I1904
sVstop
p3301
I813
sVwristwatch
p3302
I735
sVmiddleaged
p3303
I2197
sVtied
p3304
I295
sVBAND
p3305
I3422
sVnotebook
p3306
I766
sVwrist
p3307
I148
sVstructure
p3308
I3843
sVethnic
p3309
I4066
sVfits
p3310
I2386
sVties
p3311
I1486
sVwearinh
p3312
I3574
sVfray
p3313
I3903
sVroses
p3314
I2206
sVlight
p3315
I45
sVDenim
p3316
I2565
sVstraps
p3317
I193
sVlines
p3318
I539
sVclogs
p3319
I1689
sVSAME
p3320
I3209
sVOne
p3321
I865
sVMiddle
p3322
I1144
sVscrubs
p3323
I2520
sVnecklace
p3324
I375
sVlined
p3325
I970
sVdivided
p3326
I3493
sVmustache
p3327
I894
sVbathing
p3328
I1593
sVsummery
p3329
I1971
sVthigh
p3330
I434
sVmove
p3331
I2566
sVAUBURN
p3332
I3423
sVsymbols
p3333
I1905
sVincluding
p3334
I654
sVlooks
p3335
I165
sVflapped
p3336
I1804
sVlightturquoise
p3337
I3723
sVLETTERING
p3338
I4051
sVWITH
p3339
I174
sVbunch
p3340
I2467
sVlf
p3341
I3905
sVhorizontally
p3342
I588
sVouter
p3343
I1068
sVBOTTOM
p3344
I2319
sVbroom
p3345
I2618
sVpullover
p3346
I509
sVCOLLARED
p3347
I1425
sVdecal
p3348
I2007
sVbluegreen
p3349
I1264
sVturban
p3350
I2735
sVshortsHer
p3351
I2619
sVorange
p3352
I107
sVcovered
p3353
I410
sVedging
p3354
I570
sVspreading
p3355
I3841
sVbelted
p3356
I1042
sVdesigns
p3357
I507
sVtears
p3358
I2767
sVEYE
p3359
I3589
sVleggins
p3360
I1019
sVpangs
p3361
I3316
sVfrontal
p3362
I3724
sVoutlined
p3363
I1487
sVmaterial
p3364
I1245
sVovertheshoulder
p3365
I3424
sVbat
p3366
I2636
sVwhitegray
p3367
I3115
sVSLACKS
p3368
I929
sVkiss
p3369
I3104
sVhands
p3370
I114
sVfront
p3371
I73
sVwideleg
p3372
I1759
sVSWEATSHIRT
p3373
I1868
sVheadphone
p3374
I4086
sVLADY
p3375
I1028
sVday
p3376
I1205
sVSHOULDER
p3377
I449
sVfrayed
p3378
I2320
sVCROSS
p3379
I3752
sVtoes
p3380
I874
sVglassed
p3381
I2808
sVovershirt
p3382
I1181
sVTShirt
p3383
I1556
sVbrownblack
p3384
I1972
sVtrimmed
p3385
I765
sVslide
p3386
I1296
sVdoesnt
p3387
I2064
sVcrossing
p3388
I472
sVmediumlength
p3389
I1022
sVbeneath
p3390
I1138
sVembellished
p3391
I3208
sVtray
p3392
I1882
sVpolkadot
p3393
I1690
sVglasses
p3394
I55
sVankles
p3395
I526
sVredbrown
p3396
I2343
sVFrom
p3397
I1783
sVlilac
p3398
I1883
sVdoing
p3399
I2568
sVwitha
p3400
I3725
sVLEANING
p3401
I3520
sVstonewashed
p3402
I3907
sVmulticolored
p3403
I351
sVwhitish
p3404
I3021
sVCAPRI
p3405
I3319
sVbooks
p3406
I665
sVsands
p3407
I3726
sVseparating
p3408
I3727
sVslumped
p3409
I3320
sVsweatshirt
p3410
I147
sVtubular
p3411
I3908
sVsandy
p3412
I1834
sVout
p3413
I323
sVbunched
p3414
I2008
sVstaircase
p3415
I2024
sVarmor
p3416
I1368
sVres
p3417
I3909
sVdish
p3418
I4010
sVoriental
p3419
I1321
sVspiked
p3420
I1606
sVburka
p3421
I3105
sVred
p3422
I36
sVoblong
p3423
I1448
sVumbrella
p3424
I177
sVBLOND
p3425
I2790
sVOlder
p3426
I1098
sVThis
p3427
I54
sVipod
p3428
I2736
sVcaramel
p3429
I2789
sVfaircomplected
p3430
I3210
sVdiagonal
p3431
I1595
sVduffle
p3432
I1170
sVdarkly
p3433
I945
sVcompletely
p3434
I1410
sVpendant
p3435
I1524
sVhandShe
p3436
I2522
sVbedazzled
p3437
I4070
sVbackless
p3438
I1691
sVbackwards
p3439
I562
sVyard
p3440
I2016
sVadolescent
p3441
I3330
sVg
p3442
I4071
sVtanbrown
p3443
I3211
sVcould
p3444
I1082
sVhes
p3445
I201
sVskateboard
p3446
I2687
sVkeep
p3447
I2870
sVstride
p3448
I871
sVlength
p3449
I83
sVOnly
p3450
I3852
sVshirtbrown
p3451
I2532
sVwading
p3452
I3729
sVreceding
p3453
I1102
sVmuseum
p3454
I3755
sVscarf
p3455
I230
sVdegree
p3456
I4059
sVshortsWith
p3457
I3321
sVblown
p3458
I3577
sVbouquet
p3459
I2523
sVscene
p3460
I2247
sVreaches
p3461
I517
sVwaling
p3462
I2003
sVbonnet
p3463
I2737
sVscalloped
p3464
I2643
sVSHORT
p3465
I341
sVLEGGINGS
p3466
I1751
sVFAST
p3467
I1788
sVsuch
p3468
I3496
sVhandHe
p3469
I2401
sVart
p3470
I2292
sVorangered
p3471
I2119
sVumbrellas
p3472
I3022
sVBLOUSE
p3473
I1309
sVBROWN
p3474
I473
sVKHAKI
p3475
I1835
sVthirties
p3476
I2940
sVswept
p3477
I2192
sVbears
p3478
I3732
sVunknown
p3479
I1570
sVbuttondown
p3480
I730
sVWORK
p3481
I2620
sVdetailing
p3482
I1318
sVWORN
p3483
I3338
sVtheir
p3484
I224
sVbagHe
p3485
I3259
sVAdult
p3486
I1121
sVbalck
p3487
I966
sVankle
p3488
I267
sVlacing
p3489
I2809
sVepaulets
p3490
I2593
sVjeansa
p3491
I3578
sVbeard
p3492
I496
sVgrayishblue
p3493
I1885
sVstomach
p3494
I833
sVlot
p3495
I1261
sVshorts
p3496
I27
sVshelf
p3497
I2524
sVmotorcycle
p3498
I1631
sVskirtShe
p3499
I2569
sVsachel
p3500
I2621
sVreflecting
p3501
I3024
sVfuzzy
p3502
I1328
sVherself
p3503
I1836
sVcompletes
p3504
I2941
sVneck
p3505
I146
sVBLUE
p3506
I339
sVphotograph
p3507
I2149
sVbuttocks
p3508
I1103
sVslack
p3509
I1726
sVSWOOSH
p3510
I2622
sVloud
p3511
I3783
sVFOLDED
p3512
I3734
sVsplotches
p3513
I2824
sVBAD
p3514
I3059
sVConversestyle
p3515
I3089
sVphoneShe
p3516
I3413
sVmidrifflevel
p3517
I3579
sVmessengerstyle
p3518
I3735
sVHAIRED
p3519
I899
sVdistinctive
p3520
I4038
sVbodice
p3521
I1886
sVhairstyle
p3522
I1433
sVcounter
p3523
I1401
sVita
p3524
I2111
sVlightly
p3525
I835
sVviewer
p3526
I1047
sVBackpack
p3527
I3914
sVBURGANDY
p3528
I2810
sVgrayish
p3529
I872
sVcurves
p3530
I1268
sVcomfortable
p3531
I1784
sVBLACK
p3532
I162
sVSTRAIGHT
p3533
I3344
sVhave
p3534
I176
sVthroat
p3535
I3915
sVcurved
p3536
I359
sVjeansHe
p3537
I3025
sVborder
p3538
I1458
sVclearly
p3539
I2009
sVviewed
p3540
I799
sVjug
p3541
I2205
sVmicrophone
p3542
I731
sVdocuments
p3543
I2570
sVangle
p3544
I1246
sVscoop
p3545
I820
sVPURPLE
p3546
I1275
sVBIG
p3547
I2388
sVable
p3548
I3737
sVmid
p3549
I369
sVoutward
p3550
I1749
sVtassel
p3551
I3967
sVbest
p3552
I3046
sVwhich
p3553
I241
sVminiskirt
p3554
I686
sVSANDLES
p3555
I3322
sVvisor
p3556
I946
sVblades
p3557
I1711
sVPierce
p3558
I3106
sVrelatively
p3559
I2962
sVcombat
p3560
I2085
sVakimbo
p3561
I3213
sVtshirts
p3562
I1837
sVwho
p3563
I277
sVTHEIR
p3564
I3214
sVconnected
p3565
I1646
sVelbowlength
p3566
I1270
sVdevice
p3567
I728
sVlobby
p3568
I2741
sVclass
p3569
I2349
sVcellphone
p3570
I491
sVRIGHT
p3571
I582
sVquilted
p3572
I1466
sVsweeping
p3573
I3661
sVpeplum
p3574
I2970
sVSlim
p3575
I2525
sVneutral
p3576
I1265
sVface
p3577
I262
sVTshirt
p3578
I301
sVlowered
p3579
I3596
sVmovie
p3580
I2792
sVskinny
p3581
I268
sVpainting
p3582
I3107
sVWEAR
p3583
I4088
sVcolorHer
p3584
I3917
sVSTRAPS
p3585
I2345
sVhoodies
p3586
I3108
sVbalding
p3587
I465
sVbulging
p3588
I2526
sVtext
p3589
I1467
sVyellows
p3590
I3389
sVindoor
p3591
I877
sVcrate
p3592
I2623
sVMiddleaged
p3593
I4072
sVwatch
p3594
I127
sVbikes
p3595
I2010
sVsweatshirts
p3596
I3414
sVparked
p3597
I2293
sVUnder
p3598
I1752
sVELBOW
p3599
I3428
sVportfolio
p3600
I2182
sVredandblack
p3601
I1655
sVbrow
p3602
I3280
sVtennies
p3603
I3904
sVmintgreen
p3604
I3027
sVSLIPPER
p3605
I2855
sVBalance
p3606
I1692
sVbased
p3607
I3740
sVclutching
p3608
I1735
sVjaw
p3609
I3581
sVTENNIS
p3610
I866
sVBRACELET
p3611
I3215
sVhighheel
p3612
I2086
sVshould
p3613
I1059
sVbuttons
p3614
I398
sVkneehigh
p3615
I1011
sVplanted
p3616
I3582
sVlightskinned
p3617
I2011
sVshinny
p3618
I2873
sVriding
p3619
I400
sVstudded
p3620
I2979
sVhe
p3621
I68
sVthinning
p3622
I2056
sVearbud
p3623
I2219
sVhandle
p3624
I544
sVtoned
p3625
I811
sVstrands
p3626
I3011
sVpaleyellow
p3627
I2874
sVoverall
p3628
I1544
sVstripes
p3629
I125
sVbear
p3630
I2470
sVsipping
p3631
I3217
sVones
p3632
I3429
sVwords
p3633
I679
sVstriped
p3634
I98
sVcutout
p3635
I2671
sVareas
p3636
I2690
sVgray
p3637
I34
sVstitching
p3638
I1619
sVfuchsia
p3639
I3991
sVh
p3640
I3583
sVLEG
p3641
I2994
sVTAIL
p3642
I1887
sVstuff
p3643
I3584
sVSNEAKERS
p3644
I721
sVshe
p3645
I69
sVembracing
p3646
I3669
sVcleavage
p3647
I4074
sVOriental
p3648
I2521
sVTHe
p3649
I1973
sVfuscha
p3650
I2892
sVview
p3651
I594
sVspotted
p3652
I895
sVborders
p3653
I3845
sVmidcalf
p3654
I589
sVROLLED
p3655
I1584
sVLIGHT
p3656
I488
sVframe
p3657
I804
sVcrossly
p3658
I3346
sVpacket
p3659
I3109
sVcomputer
p3660
I862
sVslanted
p3661
I789
sVpowder
p3662
I3218
sVbuzzed
p3663
I1673
sVviolet
p3664
I2087
sVracket
p3665
I2471
sVbouffant
p3666
I3988
sVdrawing
p3667
I2251
sVcold
p3668
I2270
sVlongish
p3669
I2445
sVwire
p3670
I1219
sVHawaiian
p3671
I1947
sVdarkblue
p3672
I597
sVpattern
p3673
I221
sVposing
p3674
I1569
sVnature
p3675
I3047
sVcarriage
p3676
I2627
sVpurses
p3677
I2472
sVwritten
p3678
I1145
sVidentification
p3679
I2740
sVpanty
p3680
I1054
sVclosed
p3681
I476
sVsemitransparent
p3682
I3919
sVwalkingHe
p3683
I3920
sVshoesHe
p3684
I318
sVMALE
p3685
I605
sVCould
p3686
I4040
sVpants
p3687
I14
sVShoulder
p3688
I2473
sVsizes
p3689
I3750
sVends
p3690
I692
sVattention
p3691
I2211
sVopening
p3692
I1276
sVmopping
p3693
I3078
sVtoting
p3694
I1785
sVbatman
p3695
I3809
sVcourtyard
p3696
I3585
sVstrides
p3697
I2248
sVS
p3698
I3324
sVslants
p3699
I1639
sVbrightyellow
p3700
I1620
sVgroup
p3701
I1206
sVTheyre
p3702
I2316
sVstaring
p3703
I1193
sVhits
p3704
I2434
sVLEGS
p3705
I4008
sVdrum
p3706
I2012
sVbarrette
p3707
I2062
sVTHis
p3708
I2571
sVtorso
p3709
I808
sVtaking
p3710
I658
sVaqua
p3711
I748
sVdisplay
p3712
I2437
sVdoorway
p3713
I1753
sVpeachcolored
p3714
I2964
sVfigures
p3715
I2812
sVlonghaired
p3716
I2474
sVpuff
p3717
I3586
sVpassing
p3718
I2475
sVjersey
p3719
I772
sVchest
p3720
I199
sVglassesa
p3721
I2417
sVMULTI
p3722
I3110
sVunclear
p3723
I1736
sVspandex
p3724
I2036
sVHer
p3725
I110
sVHes
p3726
I281
sVwall
p3727
I680
sVdenim
p3728
I112
sVovercoat
p3729
I671
sVGirls
p3730
I3587
sVwalk
p3731
I618
sVglassess
p3732
I2476
sVTHEY
p3733
I2350
sVsaxophone
p3734
I4013
sVbespectacled
p3735
I1131
sVlies
p3736
I2839
sVsari
p3737
I3219
sVaddition
p3738
I1767
sVdecent
p3739
I1043
sVbricked
p3740
I1838
sVpolka
p3741
I471
sVnurses
p3742
I3746
sVslowly
p3743
I1226
sVcaprices
p3744
I3878
sVaquamarine
p3745
I3588
sVdegrees
p3746
I3575
sVfeather
p3747
I3112
sVwaste
p3748
I2249
sVACROSS
p3749
I2506
sVpartial
p3750
I3096
sVangled
p3751
I1379
sVshoulders
p3752
I115
sVcrisscross
p3753
I2121
sVtopless
p3754
I2949
sVFRONT
p3755
I834
sVcolred
p3756
I3500
sVbackback
p3757
I2088
sVlaminated
p3758
I3523
sVangles
p3759
I2691
sVgraphics
p3760
I696
sVprescription
p3761
I511
sVBoy
p3762
I2322
sVfellow
p3763
I1779
sVSlightly
p3764
I3172
sVTHIN
p3765
I2729
sVAnd
p3766
I684
sVmulti
p3767
I524
sVplaid
p3768
I117
sVcorset
p3769
I4077
sVplain
p3770
I557
sVrunway
p3771
I2013
sVblackred
p3772
I2893
sVhoody
p3773
I1571
sVtshirt
p3774
I49
sVElderly
p3775
I3923
sVrectangular
p3776
I587
sVSEEN
p3777
I3113
sVshouldar
p3778
I3220
sVkhakicolored
p3779
I1924
sVombre
p3780
I2389
sVSKIRT
p3781
I812
sVSIDE
p3782
I1287
sVpackback
p3783
I3190
sVtaupe
p3784
I1369
sVhairpiece
p3785
I3924
sVPONY
p3786
I2183
sVfile
p3787
I2455
sValmost
p3788
I771
sVblood
p3789
I3370
sVsurface
p3790
I1596
sVrips
p3791
I2122
sVswinging
p3792
I629
sVlightweight
p3793
I1572
sVpartner
p3794
I3925
sVYou
p3795
I1768
sVsits
p3796
I2572
sVsandels
p3797
I920
sVtattoo
p3798
I1402
sVfurlined
p3799
I2250
sVoldfashioned
p3800
I3590
sVperhaps
p3801
I1277
sVtrailing
p3802
I4089
sVcross
p3803
I382
sVthighhigh
p3804
I2693
sVUnderneath
p3805
I1647
sVparts
p3806
I2624
sVdigging
p3807
I3592
sVinch
p3808
I2089
sVparty
p3809
I2151
sVbrightpink
p3810
I1648
sVgets
p3811
I4079
sVdifficult
p3812
I4012
sVodd
p3813
I2785
sVelbows
p3814
I363
sVball
p3815
I586
sVagain
p3816
I3846
sVearphones
p3817
I1366
sVSHADES
p3818
I3958
sVdrink
p3819
I661
sVupon
p3820
I3114
sVGrey
p3821
I1754
sVforehead
p3822
I1003
sVstudent
p3823
I1072
sVpedal
p3824
I1888
sVoveralls
p3825
I652
sVcollar
p3826
I122
sVoff
p3827
I294
sVcenter
p3828
I667
sVcoralcolored
p3829
I3082
sVi
p3830
I1411
sVteeshirt
p3831
I401
sVwell
p3832
I266
sVthought
p3833
I3326
sVpatterns
p3834
I769
sVwhitered
p3835
I2945
sVARE
p3836
I1278
sVsets
p3837
I3928
sVtails
p3838
I1761
sVmuscle
p3839
I1336
sVARM
p3840
I1244
sVslacks
p3841
I156
sVbending
p3842
I1737
sVBE
p3843
I1167
sVtaller
p3844
I3222
sVcameo
p3845
I4032
sVdar
p3846
I3317
sVless
p3847
I1921
sVaccurate
p3848
I3747
sVMother
p3849
I3318
sVshortsleeves
p3850
I2399
sVrooms
p3851
I3593
sVtone
p3852
I810
sVBY
p3853
I2435
sVroomy
p3854
I2391
sVWearing
p3855
I357
sVDark
p3856
I477
sVtopblue
p3857
I1786
sVbicycles
p3858
I1055
sVlisten
p3859
I3457
sVtight
p3860
I152
sVpoint
p3861
I1942
sVsky
p3862
I1135
sVknew
p3863
I3508
sVtransparent
p3864
I1755
sVJACKET
p3865
I610
sVother
p3866
I229
sVextends
p3867
I863
sVclipped
p3868
I2014
sVwet
p3869
I2015
sVadn
p3870
I3327
sVski
p3871
I4082
sVmatch
p3872
I965
sVFLIP
p3873
I1542
sVchecking
p3874
I1488
sVcobble
p3875
I3594
sVgoldenrod
p3876
I2348
sVfive
p3877
I2813
sVT
p3878
I568
sVfacial
p3879
I991
sVbottoms
p3880
I367
sVNAVY
p3881
I2392
sVLOGO
p3882
I1346
sVcontrasting
p3883
I1847
sVWRITING
p3884
I2574
sVdarkblack
p3885
I2393
sVJEAN
p3886
I1479
sVprominent
p3887
I3749
sVinsert
p3888
I3933
sVcrisp
p3889
I2394
sVlike
p3890
I334
sVcriss
p3891
I2861
sVbulge
p3892
I3398
sVvibrant
p3893
I2324
sVshoesl
p3894
I2063
sVclown
p3895
I3753
sVsized
p3896
I983
sVLENGTH
p3897
I743
sVdresses
p3898
I2694
sVlose
p3899
I3223
sVworks
p3900
I3934
sVsoft
p3901
I1380
sVbrowntan
p3902
I2185
sVheel
p3903
I381
sVbecause
p3904
I1573
sVuntucked
p3905
I776
sVREDDISH
p3906
I2325
sVcutoffs
p3907
I4037
sVblending
p3908
I2534
sVsearching
p3909
I3434
sVDOWN
p3910
I1143
sVchocolate
p3911
I2977
sVshes
p3912
I222
sVdarkhaired
p3913
I890
sVshrug
p3914
I3329
sVthroughout
p3915
I2461
sVleaf
p3916
I2742
sVpompom
p3917
I4084
sVoverlay
p3918
I1925
sVbroad
p3919
I1412
sVthicksoled
p3920
I2625
sVlean
p3921
I2220
sVgroomed
p3922
I2743
sVdoes
p3923
I1255
sVbang
p3924
I2257
sVSOMETHING
p3925
I1434
sVearrings
p3926
I1007
sVpatiently
p3927
I3881
sVchains
p3928
I3935
sVfanny
p3929
I724
sVblurry
p3930
I547
sVstairway
p3931
I2123
sVripped
p3932
I1525
sVhose
p3933
I900
sVmedieval
p3934
I3224
sVreaching
p3935
I750
sVdangling
p3936
I2092
sVgoatee
p3937
I1839
sVOVERSHIRT
p3938
I3936
sVchoker
p3939
I3225
sVSLENDER
p3940
I1656
sVbuttoned
p3941
I468
sVrolledup
p3942
I2528
sVshirtsleeved
p3943
I3709
sVlinen
p3944
I2466
sVaccompanied
p3945
I2567
sVzips
p3946
I2395
sVfluorescent
p3947
I3435
sVSCARF
p3948
I2326
sVpanel
p3949
I1033
sVabout
p3950
I689
sVcarried
p3951
I653
sVgetting
p3952
I1391
sVgazing
p3953
I2469
sVslingback
p3954
I2947
sVwhitesoled
p3955
I3477
sVUP
p3956
I984
sVcarries
p3957
I77
sVcarrier
p3958
I1097
sVsweat
p3959
I492
sVABOUT
p3960
I4050
sVcranberry
p3961
I2876
sVSubject
p3962
I1023
sVthighlength
p3963
I2186
sVPossibly
p3964
I2361
sVunworn
p3965
I2902
sVletters
p3966
I631
sVfro
p3967
I3468
sVlenght
p3968
I2221
sVglassesHe
p3969
I3118
sVTwo
p3970
I1002
sVsocks
p3971
I99
sVdue
p3972
I2212
sVredyellow
p3973
I3762
sVWHILE
p3974
I2397
sVtrunks
p3975
I1959
sVCROSSED
p3976
I3030
sVtiny
p3977
I1372
sVfemale
p3978
I164
sVhang
p3979
I1492
sVutility
p3980
I2436
sVGRAY
p3981
I463
sVIvory
p3982
I4087
sVadditional
p3983
I3754
sVelastic
p3984
I2148
sVveil
p3985
I3121
sVbuckle
p3986
I937
sVoutline
p3987
I1091
sVspots
p3988
I757
sVgreyyellow
p3989
I3756
sVcreme
p3990
I4039
sVtracksuit
p3991
I3877
sVinner
p3992
I2152
sVChild
p3993
I1949
sVStriped
p3994
I3757
sVnikes
p3995
I3123
sVMINI
p3996
I2576
sVivory
p3997
I1727
sVCUT
p3998
I1304
sVhr
p3999
I2877
sVbus
p4000
I1657
sVbrand
p4001
I1609
sVtriangular
p4002
I1198
sVbut
p4003
I487
sVpixie
p4004
I2252
sVrepeated
p4005
I1337
sVconstruction
p4006
I2150
sVbun
p4007
I332
sVcrocks
p4008
I3026
sVbe
p4009
I106
sVear
p4010
I393
sVeat
p4011
I3760
sVpartially
p4012
I783
sVjacketWith
p4013
I3031
sVWALKING
p4014
I635
sVmade
p4015
I624
sVplaces
p4016
I2253
sVofficial
p4017
I3597
sVsmooth
p4018
I1319
sVflip
p4019
I159
sVplaced
p4020
I1139
sVbelow
p4021
I223
sVlevis
p4022
I2948
sVempty
p4023
I2431
sVSKINNY
p4024
I1320
sVpiece
p4025
I411
sVfulllength
p4026
I1976
sVwhiteandblack
p4027
I2959
sVskating
p4028
I3937
sVcutouts
p4029
I2828
sVentering
p4030
I3226
sVpin
p4031
I1950
sVcoiffed
p4032
I3119
sVbrightwhite
p4033
I2271
sVmask
p4034
I713
sVpenny
p4035
I2878
sVvans
p4036
I2462
sVmaroon
p4037
I326
sVpig
p4038
I2187
sVboardwalk
p4039
I3436
sVBALL
p4040
I3408
sVguy
p4041
I311
sVour
p4042
I4068
sVpartly
p4043
I1541
sVpit
p4044
I2481
sVdeepblue
p4045
I1031
sVredblack
p4046
I1674
sVgay
p4047
I1574
sVdressed
p4048
I181
sVConverse
p4049
I2124
sVboot
p4050
I1310
sVdetail
p4051
I2188
sVblackgray
p4052
I3331
sVbook
p4053
I198
sVdetails
p4054
I1029
sVtalkie
p4055
I2628
sVmidstride
p4056
I2921
sVshortsleeved
p4057
I228
sVponytail
p4058
I135
sVhairHe
p4059
I3939
sVCELLPHONE
p4060
I3228
sVYounger
p4061
I1468
sVSLIM
p4062
I3761
sVstar
p4063
I1850
sVblueandyellow
p4064
I4090
sVshredded
p4065
I4085
sVresembles
p4066
I2922
sVshown
p4067
I1222
sVbundle
p4068
I2950
sVleaving
p4069
I3015
sVapparel
p4070
I4009
sVpumps
p4071
I775
sVWRAPPED
p4072
I3601
sVsandles
p4073
I752
sVN
p4074
I2438
sVfriends
p4075
I2038
sVupwards
p4076
I1977
sVcinches
p4077
I3763
sVSLEEVED
p4078
I560
sVbackpackHe
p4079
I1889
sVWAIST
p4080
I2034
sVbrownwhite
p4081
I4055
sVstarting
p4082
I3848
sVconversetype
p4083
I3987
sVVery
p4084
I2387
sVportion
p4085
I1478
sVwrite
p4086
I2837
sVSLEEVES
p4087
I1048
sVcinched
p4088
I2039
sVsash
p4089
I1024
sVblackwhite
p4090
I600
sVtoboggan
p4091
I3470
s.